
cur21.exec:     file format elf32-m68k


Disassembly of section .text:

00000000 <_text_start>:
       0:	ff0f fff2      	cp1stb %sp,%sp,#8,#498
       4:	0000 1008      	orib #8,%d0
	...

00001008 <start>:
    1008:	207c ff00 0000 	moveal #-16777216,%a0
    100e:	13fc 0055 ff00 	moveb #85,ff000000 <RAM>
    1014:	0000 
    1016:	13fc 00aa ff00 	moveb #-86,ff000001 <RAM+0x1>
    101c:	0001 
    101e:	4e71           	nop
    1020:	2018           	movel %a0@+,%d0
    1022:	2018           	movel %a0@+,%d0
    1024:	2018           	movel %a0@+,%d0
    1026:	2018           	movel %a0@+,%d0
    1028:	2018           	movel %a0@+,%d0
    102a:	2018           	movel %a0@+,%d0
    102c:	2018           	movel %a0@+,%d0
    102e:	2018           	movel %a0@+,%d0
    1030:	2018           	movel %a0@+,%d0
    1032:	4e71           	nop
    1034:	4e71           	nop
    1036:	4e71           	nop
    1038:	7001           	moveq #1,%d0
    103a:	4e7b 0002      	movec %d0,%cacr

0000103e <ram_test>:
    103e:	207c ff00 0000 	moveal #-16777216,%a0

00001044 <ram_loop>:
    1044:	b1fc ff1f fc00 	cmpal #-14681088,%a0
    104a:	6700 0030      	beqw 107c <loop>
    104e:	20bc a55a a55a 	movel #-1520786086,%a0@
    1054:	2010           	movel %a0@,%d0
    1056:	0c80 a55a a55a 	cmpil #-1520786086,%d0
    105c:	6600 0008      	bnew 1066 <ram_fail>
    1060:	5888           	addql #4,%a0
    1062:	6000 ffe0      	braw 1044 <ram_loop>

00001066 <ram_fail>:
    1066:	13fc 0001 4000 	moveb #1,4000000e <Duart+0xe>
    106c:	000e 
    106e:	13fc 0001 4000 	moveb #1,4000000f <Duart+0xf>
    1074:	000f 
    1076:	5288           	addql #1,%a0
    1078:	6000 ffca      	braw 1044 <ram_loop>

0000107c <loop>:
    107c:	207c ff00 0000 	moveal #-16777216,%a0
    1082:	4e7b 8801      	movec %a0,%vbr
    1086:	6100 0018      	bsrw 10a0 <_dinit>
    108a:	207c 0000 119c 	moveal #4508,%a0
    1090:	6100 00f6      	bsrw 1188 <ztext>
    1094:	4eb9 0000 11cc 	jsr 11cc <mmain>
    109a:	60ff ffff ffe0 	bral 107c <loop>

000010a0 <_dinit>:
    10a0:	207c 4000 0000 	moveal #1073741824,%a0
    10a6:	117c 0000 0004 	moveb #0,%a0@(4)
    10ac:	103c 00cc      	moveb #-52,%d0

000010b0 <dine>:
    10b0:	1140 0009      	moveb %d0,%a0@(9)
    10b4:	117c 0013 0008 	moveb #19,%a0@(8)
    10ba:	117c 000f 0008 	moveb #15,%a0@(8)
    10c0:	117c 0015 000a 	moveb #21,%a0@(10)
    10c6:	117c 00cc 0001 	moveb #-52,%a0@(1)
    10cc:	10bc 0013      	moveb #19,%a0@
    10d0:	10bc 000f      	moveb #15,%a0@
    10d4:	117c 0015 0002 	moveb #21,%a0@(2)
    10da:	4e75           	rts

000010dc <_chbo>:
    10dc:	48e7 0080      	moveml %a0,%sp@-
    10e0:	207c 4000 0000 	moveal #1073741824,%a0

000010e6 <chbtst>:
    10e6:	0828 0002 0009 	btst #2,%a0@(9)
    10ec:	6700 fff8      	beqw 10e6 <chbtst>
    10f0:	1140 000b      	moveb %d0,%a0@(11)
    10f4:	4cdf 0100      	moveml %sp@+,%a0
    10f8:	4e75           	rts

000010fa <_chbi>:
    10fa:	48e7 0080      	moveml %a0,%sp@-
    10fe:	207c 4000 0000 	moveal #1073741824,%a0

00001104 <chbits>:
    1104:	0828 0000 0009 	btst #0,%a0@(9)
    110a:	6700 fff8      	beqw 1104 <chbits>
    110e:	1028 000b      	moveb %a0@(11),%d0
    1112:	4cdf 0100      	moveml %sp@+,%a0
    1116:	4e75           	rts

00001118 <_chbt>:
    1118:	48e7 0080      	moveml %a0,%sp@-
    111c:	207c 4000 0000 	moveal #1073741824,%a0
    1122:	0828 0000 0009 	btst #0,%a0@(9)
    1128:	57c0           	seq %d0
    112a:	4cdf 0100      	moveml %sp@+,%a0
    112e:	4e75           	rts

00001130 <_chao>:
    1130:	48e7 0080      	moveml %a0,%sp@-
    1134:	207c 4000 0000 	moveal #1073741824,%a0

0000113a <chatst>:
    113a:	0828 0002 0001 	btst #2,%a0@(1)
    1140:	6700 fff8      	beqw 113a <chatst>
    1144:	1140 0003      	moveb %d0,%a0@(3)
    1148:	4cdf 0100      	moveml %sp@+,%a0
    114c:	4e75           	rts

0000114e <_chai>:
    114e:	48e7 0080      	moveml %a0,%sp@-
    1152:	207c 4000 0000 	moveal #1073741824,%a0

00001158 <chaits>:
    1158:	0828 0000 0001 	btst #0,%a0@(1)
    115e:	6700 fff8      	beqw 1158 <chaits>
    1162:	1028 0003      	moveb %a0@(3),%d0
    1166:	0200 007f      	andib #127,%d0
    116a:	4cdf 0100      	moveml %sp@+,%a0
    116e:	4e75           	rts

00001170 <_chat>:
    1170:	48e7 0080      	moveml %a0,%sp@-
    1174:	207c 4000 0000 	moveal #1073741824,%a0
    117a:	0828 0000 0001 	btst #0,%a0@(1)
    1180:	57c0           	seq %d0
    1182:	4cdf 0100      	moveml %sp@+,%a0
    1186:	4e75           	rts

00001188 <ztext>:
    1188:	1018           	moveb %a0@+,%d0
    118a:	0c00 0000      	cmpib #0,%d0
    118e:	6700 000a      	beqw 119a <zend>
    1192:	6100 ff48      	bsrw 10dc <_chbo>
    1196:	6000 fff0      	braw 1188 <ztext>

0000119a <zend>:
    119a:	4e75           	rts

0000119c <mte2>:
    119c:	0a0d           	.short 0x0a0d
    119e:	506f 6c6c      	addqw #8,%sp@(27756)
    11a2:	616b           	bsrs 120f <mmain+0x43>
    11a4:	2053           	moveal %a3@,%a0
    11a6:	6f66           	bles 120e <mmain+0x42>
    11a8:	7477           	moveq #119,%d2
    11aa:	6172           	bsrs 121e <mmain+0x52>
    11ac:	6520           	bcss 11ce <mmain+0x2>
    11ae:	6332           	blss 11e2 <mmain+0x16>
    11b0:	3030 3520 3638 	movew %a0@(0000000000003638,%d3:w:4),%d0
    11b6:	3032 3020      	movew %a2@(0000000000000020,%d3:w),%d0
    11ba:	4472 616d 0a0d 	negw %a2@(0000000000000a0d)@(0000000000000000)
	...

000011c1 <mte3>:
    11c1:	5472 6170 2023 	addqw #2,%a2@(0000000020233020)
    11c7:	3020 
    11c9:	0a0d           	Address 0x00000000000011cb is out of bounds.
.short 0x0a0d
	...

000011cc <mmain>:
    11cc:	4e56 0000      	linkw %fp,#0
    11d0:	4879 ff00 1380 	pea ff001380 <_data_end>
    11d6:	4879 ff00 1000 	pea ff001000 <dphtab>
    11dc:	4879 0000 7524 	pea 7524 <_text_end>
    11e2:	4879 0000 7104 	pea 7104 <setb3+0x6>
    11e8:	4eb9 0000 169c 	jsr 169c <printf>
    11ee:	43f9 0000 7524 	lea 7524 <_text_end>,%a1
    11f4:	4fef 0010      	lea %sp@(16),%sp
    11f8:	41f9 ff00 1000 	lea ff001000 <dphtab>,%a0
    11fe:	6002           	bras 1202 <mmain+0x36>
    1200:	10d9           	moveb %a1@+,%a0@+
    1202:	b1fc ff00 1380 	cmpal #-16772224,%a0
    1208:	65f6           	bcss 1200 <mmain+0x34>
    120a:	4879 ff00 2f6c 	pea ff002f6c <_bss_end>
    1210:	4879 ff00 1380 	pea ff001380 <_data_end>
    1216:	4879 0000 7130 	pea 7130 <setb3+0x32>
    121c:	4eb9 0000 169c 	jsr 169c <printf>
    1222:	4fef 000c      	lea %sp@(12),%sp
    1226:	41f9 ff00 1380 	lea ff001380 <_data_end>,%a0
    122c:	6002           	bras 1230 <mmain+0x64>
    122e:	4218           	clrb %a0@+
    1230:	b1fc ff00 2f6c 	cmpal #-16765076,%a0
    1236:	65f6           	bcss 122e <mmain+0x62>
    1238:	4e5e           	unlk %fp
    123a:	60ff 0000 18f0 	bral 2b2c <cpm>

00001240 <_init>:
    1240:	41fa 006e      	lea %pc@(12b0 <entry>),%a0
    1244:	23c8 ff00 008c 	movel %a0,ff00008c <RAM+0x8c>
    124a:	41f9 ff00 1b4c 	lea ff001b4c <memtab>,%a0
    1250:	30fc 0001      	movew #1,%a0@+
    1254:	20fc ff00 8000 	movel #-16744448,%a0@+
    125a:	20fc 000f ffff 	movel #1048575,%a0@+
    1260:	2f38 0008      	movel 8 <HiAdr>,%sp@-
    1264:	41f9 ff00 2f6c 	lea ff002f6c <_bss_end>,%a0
    126a:	d1fc 0000 2b2c 	addal #11052,%a0
    1270:	23c8 ff00 27cc 	movel %a0,ff0027cc <memdsk>
    1276:	21fc 0000 127e 	movel #4734,8 <HiAdr>
    127c:	0008 

0000127e <loop>:
    127e:	21df 0008      	movel %sp@+,8 <HiAdr>
    1282:	91fc ff00 2f6c 	subal #-16765076,%a0
    1288:	91fc 0000 2b2c 	subal #11052,%a0
    128e:	2008           	movel %a0,%d0
    1290:	720b           	moveq #11,%d1
    1292:	e2a8           	lsrl %d1,%d0
    1294:	33c0 ff00 10a2 	movew %d0,ff0010a2 <dpb3+0x6>
    129a:	46fc 2000      	movew #8192,%sr
    129e:	4eb9 0000 14cc 	jsr 14cc <biosinit>
    12a4:	4280           	clrl %d0
    12a6:	4e75           	rts

000012a8 <wboot>:
    12a8:	4280           	clrl %d0
    12aa:	4ef9 0000 2b2c 	jmp 2b2c <cpm>

000012b0 <entry>:
    12b0:	2f02           	movel %d2,%sp@-
    12b2:	2f01           	movel %d1,%sp@-
    12b4:	2f00           	movel %d0,%sp@-
    12b6:	4eb9 0000 14f8 	jsr 14f8 <cbios>
    12bc:	defc 000c      	addaw #12,%sp
    12c0:	4e73           	rte

000012c2 <setimask>:
    12c2:	40c0           	movew %sr,%d0
    12c4:	e048           	lsrw #8,%d0
    12c6:	0280 0000 0007 	andil #7,%d0
    12cc:	40c1           	movew %sr,%d1
    12ce:	e059           	rorw #8,%d1
    12d0:	0241 fff8      	andiw #-8,%d1
    12d4:	d26f 0004      	addw %sp@(4),%d1
    12d8:	e059           	rorw #8,%d1
    12da:	46c1           	movew %d1,%sr
    12dc:	4e75           	rts
	...

000012e0 <dump>:
    12e0:	4e56 0000      	linkw %fp,#0
    12e4:	48e7 303c      	moveml %d2-%d3/%a2-%a5,%sp@-
    12e8:	246e 0008      	moveal %fp@(8),%a2
    12ec:	260a           	movel %a2,%d3
    12ee:	0683 0000 0080 	addil #128,%d3
    12f4:	47f9 0000 169c 	lea 169c <printf>,%a3
    12fa:	2f0a           	movel %a2,%sp@-
    12fc:	4879 0000 7147 	pea 7147 <setb3+0x49>
    1302:	4e93           	jsr %a3@
    1304:	284a           	moveal %a2,%a4
    1306:	508f           	addql #8,%sp
    1308:	2a4a           	moveal %a2,%a5
    130a:	4282           	clrl %d2
    130c:	4280           	clrl %d0
    130e:	101d           	moveb %a5@+,%d0
    1310:	2f00           	movel %d0,%sp@-
    1312:	4879 0000 7150 	pea 7150 <setb3+0x52>
    1318:	4e93           	jsr %a3@
    131a:	5282           	addql #1,%d2
    131c:	508f           	addql #8,%sp
    131e:	7010           	moveq #16,%d0
    1320:	b082           	cmpl %d2,%d0
    1322:	66e8           	bnes 130c <dump+0x2c>
    1324:	4282           	clrl %d2
    1326:	101c           	moveb %a4@+,%d0
    1328:	1200           	moveb %d0,%d1
    132a:	0601 ffe0      	addib #-32,%d1
    132e:	0c01 005f      	cmpib #95,%d1
    1332:	6302           	blss 1336 <dump+0x56>
    1334:	702e           	moveq #46,%d0
    1336:	0280 0000 00ff 	andil #255,%d0
    133c:	2f00           	movel %d0,%sp@-
    133e:	4879 0000 7156 	pea 7156 <setb3+0x58>
    1344:	4e93           	jsr %a3@
    1346:	5282           	addql #1,%d2
    1348:	508f           	addql #8,%sp
    134a:	7010           	moveq #16,%d0
    134c:	b082           	cmpl %d2,%d0
    134e:	66d6           	bnes 1326 <dump+0x46>
    1350:	45ea 0010      	lea %a2@(16),%a2
    1354:	b68a           	cmpl %a2,%d3
    1356:	66a2           	bnes 12fa <dump+0x1a>
    1358:	4cee 3c0c ffe8 	moveml %fp@(-24),%d2-%d3/%a2-%a5
    135e:	4e5e           	unlk %fp
    1360:	4e75           	rts

00001362 <read>:
    1362:	4e56 0000      	linkw %fp,#0
    1366:	2f0a           	movel %a2,%sp@-
    1368:	2f02           	movel %d2,%sp@-
    136a:	3439 ff00 2738 	movew ff002738 <setsec>,%d2
    1370:	3002           	movew %d2,%d0
    1372:	e440           	asrw #2,%d0
    1374:	2479 ff00 1b56 	moveal ff001b56 <setdma>,%a2
    137a:	4878 0001      	pea 1 <_text_start+0x1>
    137e:	4879 ff00 239c 	pea ff00239c <sector>
    1384:	3079 ff00 2b8c 	moveaw ff002b8c <settrk>,%a0
    138a:	4870 0000      	pea %a0@(0000000000000000,%d0:w)
    138e:	42a7           	clrl %sp@-
    1390:	4eb9 0000 2706 	jsr 2706 <ide_readmulti>
    1396:	7003           	moveq #3,%d0
    1398:	c480           	andl %d0,%d2
    139a:	ef8a           	lsll #7,%d2
    139c:	4fef 0010      	lea %sp@(16),%sp
    13a0:	91c8           	subal %a0,%a0
    13a2:	14f0 2930 ff00 	moveb %a0@(ffffffffff00239c,%d2:l),%a2@+
    13a8:	239c 
    13aa:	5288           	addql #1,%a0
    13ac:	b0fc 0080      	cmpaw #128,%a0
    13b0:	66f0           	bnes 13a2 <read+0x40>
    13b2:	4280           	clrl %d0
    13b4:	242e fff8      	movel %fp@(-8),%d2
    13b8:	246e fffc      	moveal %fp@(-4),%a2
    13bc:	4e5e           	unlk %fp
    13be:	4e75           	rts

000013c0 <write>:
    13c0:	4e56 0000      	linkw %fp,#0
    13c4:	4e5e           	unlk %fp
    13c6:	4e75           	rts

000013c8 <format>:
    13c8:	4e56 0000      	linkw %fp,#0
    13cc:	4e5e           	unlk %fp
    13ce:	4e75           	rts

000013d0 <flush>:
    13d0:	4e56 0000      	linkw %fp,#0
    13d4:	4280           	clrl %d0
    13d6:	4e5e           	unlk %fp
    13d8:	4e75           	rts

000013da <printstr>:
    13da:	4e56 0000      	linkw %fp,#0
    13de:	206e 0008      	moveal %fp@(8),%a0
    13e2:	4a18           	tstb %a0@+
    13e4:	66fc           	bnes 13e2 <printstr+0x8>
    13e6:	4e5e           	unlk %fp
    13e8:	4e75           	rts

000013ea <bioserr>:
    13ea:	4e56 0000      	linkw %fp,#0
    13ee:	2f0a           	movel %a2,%sp@-
    13f0:	2f02           	movel %d2,%sp@-
    13f2:	242e 0008      	movel %fp@(8),%d2
    13f6:	4879 0000 7159 	pea 7159 <setb3+0x5b>
    13fc:	45fa ffdc      	lea %pc@(13da <printstr>),%a2
    1400:	4e92           	jsr %a2@
    1402:	2e82           	movel %d2,%sp@
    1404:	4e92           	jsr %a2@
    1406:	588f           	addql #4,%sp
    1408:	2d7c 0000 716a 	movel #29034,%fp@(8)
    140e:	0008 
    1410:	242e fff8      	movel %fp@(-8),%d2
    1414:	246e fffc      	moveal %fp@(-4),%a2
    1418:	4e5e           	unlk %fp
    141a:	60be           	bras 13da <printstr>

0000141c <sectran>:
    141c:	4e56 0000      	linkw %fp,#0
    1420:	206e 000c      	moveal %fp@(12),%a0
    1424:	302e 000a      	movew %fp@(10),%d0
    1428:	4a88           	tstl %a0
    142a:	6708           	beqs 1434 <sectran+0x18>
    142c:	1030 0000      	moveb %a0@(0000000000000000,%d0:w),%d0
    1430:	4880           	extw %d0
    1432:	6002           	bras 1436 <sectran+0x1a>
    1434:	5240           	addqw #1,%d0
    1436:	4e5e           	unlk %fp
    1438:	4e75           	rts

0000143a <setxvect>:
    143a:	4e56 0000      	linkw %fp,#0
    143e:	302e 000a      	movew %fp@(10),%d0
    1442:	48c0           	extl %d0
    1444:	e588           	lsll #2,%d0
    1446:	2040           	moveal %d0,%a0
    1448:	d1fc ff00 0000 	addal #-16777216,%a0
    144e:	2010           	movel %a0@,%d0
    1450:	20ae 000c      	movel %fp@(12),%a0@
    1454:	4e5e           	unlk %fp
    1456:	4e75           	rts

00001458 <slctdsk>:
    1458:	4e56 0000      	linkw %fp,#0
    145c:	2f0a           	movel %a2,%sp@-
    145e:	2f02           	movel %d2,%sp@-
    1460:	102e 000b      	moveb %fp@(11),%d0
    1464:	49c0           	extbl %d0
    1466:	1200           	moveb %d0,%d1
    1468:	4881           	extw %d1
    146a:	33c1 ff00 274a 	movew %d1,ff00274a <setdsk>
    1470:	2200           	movel %d0,%d1
    1472:	e589           	lsll #2,%d1
    1474:	2400           	movel %d0,%d2
    1476:	e98a           	lsll #4,%d2
    1478:	9481           	subl %d1,%d2
    147a:	d480           	addl %d0,%d2
    147c:	d482           	addl %d2,%d2
    147e:	0682 ff00 1000 	addil #-16773120,%d2
    1484:	2f02           	movel %d2,%sp@-
    1486:	2f00           	movel %d0,%sp@-
    1488:	4879 0000 7190 	pea 7190 <__FUNCTION__.884>
    148e:	4879 0000 716e 	pea 716e <setb3+0x70>
    1494:	45f9 0000 169c 	lea 169c <printf>,%a2
    149a:	4e92           	jsr %a2@
    149c:	4fef 0010      	lea %sp@(16),%sp
    14a0:	0c79 0004 ff00 	cmpiw #4,ff00274a <setdsk>
    14a6:	274a 
    14a8:	6714           	beqs 14be <slctdsk+0x66>
    14aa:	2f02           	movel %d2,%sp@-
    14ac:	4879 0000 7190 	pea 7190 <__FUNCTION__.884>
    14b2:	4879 0000 717f 	pea 717f <setb3+0x81>
    14b8:	4e92           	jsr %a2@
    14ba:	4fef 000c      	lea %sp@(12),%sp
    14be:	2002           	movel %d2,%d0
    14c0:	242e fff8      	movel %fp@(-8),%d2
    14c4:	246e fffc      	moveal %fp@(-4),%a2
    14c8:	4e5e           	unlk %fp
    14ca:	4e75           	rts

000014cc <biosinit>:
    14cc:	4e56 0000      	linkw %fp,#0
    14d0:	103c 0031      	moveb #49,%d0
    14d4:	4eb9 0000 10dc 	jsr 10dc <_chbo>
    14da:	4e5e           	unlk %fp
    14dc:	4e75           	rts

000014de <initprts>:
    14de:	4e56 0000      	linkw %fp,#0
    14e2:	4e5e           	unlk %fp
    14e4:	4e75           	rts

000014e6 <initdsks>:
    14e6:	4e56 0000      	linkw %fp,#0
    14ea:	42a7           	clrl %sp@-
    14ec:	4eb9 0000 26d6 	jsr 26d6 <ide_init>
    14f2:	588f           	addql #4,%sp
    14f4:	4e5e           	unlk %fp
    14f6:	4e75           	rts

000014f8 <cbios>:
    14f8:	4e56 0000      	linkw %fp,#0
    14fc:	2f02           	movel %d2,%sp@-
    14fe:	222e 000c      	movel %fp@(12),%d1
    1502:	226e 0010      	moveal %fp@(16),%a1
    1506:	342e 000a      	movew %fp@(10),%d2
    150a:	0c42 003f      	cmpiw #63,%d2
    150e:	6200 0182      	bhiw 1692 <cbios+0x19a>
    1512:	0282 0000 ffff 	andil #65535,%d2
    1518:	307b 2a06      	moveaw %pc@(1520 <cbios+0x28>,%d2:l:2),%a0
    151c:	4efb 8002      	jmp %pc@(1520 <cbios+0x28>,%a0:w)
    1520:	0080 008a 0094 	oril #9044116,%d0
    1526:	00a0 00b8 0170 	oril #12058992,%a0@-
    152c:	0170 0172 00c2 	bchg %d0,%a0@(0000000000c200cc)@(00000000000000e6)
    1532:	00cc 00e6 
    1536:	00f0           	.short 0x00f0
    1538:	00fa           	.short 0x00fa
    153a:	0102           	btst %d0,%d2
    153c:	0174 010c      	bchg %d0,%a4@(0000000000000000)@(0000000000000000,%d0:w)
    1540:	011c           	btst %d0,%a4@+
    1542:	0172 0128 013a 	bchg %d0,%a2@(000000000000013a,%d0:w)
    1548:	0144           	bchg %d0,%d4
    154a:	0172 014c      	bchg %d0,%a2@(0000000000000000)@(0000000000000000)
    154e:	0172 0172 0172 	bchg %d0,%a2@(0000000001720172)@(0000000000000172)
    1554:	0172 0172 
    1558:	0172 0172 0172 	bchg %d0,%a2@(0000000001720172)@(0000000000000172)
    155e:	0172 0172 
    1562:	0172 0172 0172 	bchg %d0,%a2@(0000000001720172)@(0000000000000172)
    1568:	0172 0172 
    156c:	0172 0172 0172 	bchg %d0,%a2@(0000000001720172)@(0000000000000172)
    1572:	0172 0172 
    1576:	0172 0172 0172 	bchg %d0,%a2@(0000000001720172)@(0000000000000172)
    157c:	0172 0172 
    1580:	0172 0172 0172 	bchg %d0,%a2@(0000000001720172)@(0000000000000172)
    1586:	0172 0172 
    158a:	0172 0172 0172 	bchg %d0,%a2@(0000000001720172)@(0000000000000172)
    1590:	0172 0172 
    1594:	0172 0172 0172 	bchg %d0,%a2@(0000000001720172)@(0000000000000172)
    159a:	0172 0172 
    159e:	015e           	bchg %d0,%fp@+
    15a0:	242e fffc      	movel %fp@(-4),%d2
    15a4:	4e5e           	unlk %fp
    15a6:	6000 ff24      	braw 14cc <biosinit>
    15aa:	4eba ff3a      	jsr %pc@(14e6 <initdsks>)
    15ae:	4eb9 0000 12a8 	jsr 12a8 <wboot>
    15b4:	0839 0000 4000 	btst #0,40000009 <Duart+0x9>
    15ba:	0009 
    15bc:	56c0           	sne %d0
    15be:	6012           	bras 15d2 <cbios+0xda>
    15c0:	1039 4000 0009 	moveb 40000009 <Duart+0x9>,%d0
    15c6:	0800 0000      	btst #0,%d0
    15ca:	67f4           	beqs 15c0 <cbios+0xc8>
    15cc:	1039 4000 000b 	moveb 4000000b <Duart+0xb>,%d0
    15d2:	49c0           	extbl %d0
    15d4:	6000 00be      	braw 1694 <cbios+0x19c>
    15d8:	13c1 4000 000b 	moveb %d1,4000000b <Duart+0xb>
    15de:	6000 00b0      	braw 1690 <cbios+0x198>
    15e2:	4279 ff00 2b8c 	clrw ff002b8c <settrk>
    15e8:	6000 00a6      	braw 1690 <cbios+0x198>
    15ec:	33c1 ff00 274a 	movew %d1,ff00274a <setdsk>
    15f2:	42ae 000c      	clrl %fp@(12)
    15f6:	3041           	moveaw %d1,%a0
    15f8:	2d48 0008      	movel %a0,%fp@(8)
    15fc:	242e fffc      	movel %fp@(-4),%d2
    1600:	4e5e           	unlk %fp
    1602:	6000 fe54      	braw 1458 <slctdsk>
    1606:	33c1 ff00 2b8c 	movew %d1,ff002b8c <settrk>
    160c:	6000 0082      	braw 1690 <cbios+0x198>
    1610:	5341           	subqw #1,%d1
    1612:	33c1 ff00 2738 	movew %d1,ff002738 <setsec>
    1618:	6076           	bras 1690 <cbios+0x198>
    161a:	23c1 ff00 1b56 	movel %d1,ff001b56 <setdma>
    1620:	606e           	bras 1690 <cbios+0x198>
    1622:	242e fffc      	movel %fp@(-4),%d2
    1626:	4e5e           	unlk %fp
    1628:	6000 fd38      	braw 1362 <read>
    162c:	7000           	moveq #0,%d0
    162e:	4600           	notb %d0
    1630:	0839 0001 0ffe 	btst #1,ffee015 <_text_end+0xffe6af1>
    1636:	e015 
    1638:	665a           	bnes 1694 <cbios+0x19c>
    163a:	6056           	bras 1692 <cbios+0x19a>
    163c:	2f09           	movel %a1,%sp@-
    163e:	2f01           	movel %d1,%sp@-
    1640:	4eba fdda      	jsr %pc@(141c <sectran>)
    1644:	508f           	addql #8,%sp
    1646:	6018           	bras 1660 <cbios+0x168>
    1648:	103c 0061      	moveb #97,%d0
    164c:	4eb9 0000 10dc 	jsr 10dc <_chbo>
    1652:	203c ff00 1b4c 	movel #-16770228,%d0
    1658:	603a           	bras 1694 <cbios+0x19c>
    165a:	3039 ff00 1f9a 	movew ff001f9a <iobyte>,%d0
    1660:	48c0           	extl %d0
    1662:	6030           	bras 1694 <cbios+0x19c>
    1664:	33c1 ff00 1f9a 	movew %d1,ff001f9a <iobyte>
    166a:	6024           	bras 1690 <cbios+0x198>
    166c:	48c1           	extl %d1
    166e:	e589           	lsll #2,%d1
    1670:	2041           	moveal %d1,%a0
    1672:	d1fc ff00 0000 	addal #-16777216,%a0
    1678:	2010           	movel %a0@,%d0
    167a:	2089           	movel %a1,%a0@
    167c:	6016           	bras 1694 <cbios+0x19c>
    167e:	2f01           	movel %d1,%sp@-
    1680:	4eba fd46      	jsr %pc@(13c8 <format>)
    1684:	588f           	addql #4,%sp
    1686:	4a80           	tstl %d0
    1688:	57c0           	seq %d0
    168a:	49c0           	extbl %d0
    168c:	4480           	negl %d0
    168e:	6004           	bras 1694 <cbios+0x19c>
    1690:	6002           	bras 1694 <cbios+0x19c>
    1692:	4280           	clrl %d0
    1694:	242e fffc      	movel %fp@(-4),%d2
    1698:	4e5e           	unlk %fp
    169a:	4e75           	rts

0000169c <printf>:
    169c:	4e56 ff60      	linkw %fp,#-160
    16a0:	48e7 2030      	moveml %d2/%a2-%a3,%sp@-
    16a4:	486e 000c      	pea %fp@(12)
    16a8:	2f2e 0008      	movel %fp@(8),%sp@-
    16ac:	47ee ff60      	lea %fp@(-160),%a3
    16b0:	2f0b           	movel %a3,%sp@-
    16b2:	4eb9 0000 2274 	jsr 2274 <vsprintf>
    16b8:	2400           	movel %d0,%d2
    16ba:	4fef 000c      	lea %sp@(12),%sp
    16be:	45f9 0000 1b9c 	lea 1b9c <_putc>,%a2
    16c4:	601e           	bras 16e4 <printf+0x48>
    16c6:	0c00 000a      	cmpib #10,%d0
    16ca:	6610           	bnes 16dc <printf+0x40>
    16cc:	4878 000a      	pea a <printstr+0x1>
    16d0:	4e92           	jsr %a2@
    16d2:	4878 000d      	pea d <BasPage+0x1>
    16d6:	4e92           	jsr %a2@
    16d8:	508f           	addql #8,%sp
    16da:	6008           	bras 16e4 <printf+0x48>
    16dc:	49c0           	extbl %d0
    16de:	2f00           	movel %d0,%sp@-
    16e0:	4e92           	jsr %a2@
    16e2:	588f           	addql #4,%sp
    16e4:	101b           	moveb %a3@+,%d0
    16e6:	66de           	bnes 16c6 <printf+0x2a>
    16e8:	2002           	movel %d2,%d0
    16ea:	4cee 0c04 ff54 	moveml %fp@(-172),%d2/%a2-%a3
    16f0:	4e5e           	unlk %fp
    16f2:	4e75           	rts

000016f4 <puts>:
    16f4:	4e56 0000      	linkw %fp,#0
    16f8:	2f0b           	movel %a3,%sp@-
    16fa:	2f0a           	movel %a2,%sp@-
    16fc:	246e 0008      	moveal %fp@(8),%a2
    1700:	47f9 0000 1b9c 	lea 1b9c <_putc>,%a3
    1706:	6008           	bras 1710 <puts+0x1c>
    1708:	49c0           	extbl %d0
    170a:	2f00           	movel %d0,%sp@-
    170c:	4e93           	jsr %a3@
    170e:	588f           	addql #4,%sp
    1710:	101a           	moveb %a2@+,%d0
    1712:	66f4           	bnes 1708 <puts+0x14>
    1714:	246e fff8      	moveal %fp@(-8),%a2
    1718:	266e fffc      	moveal %fp@(-4),%a3
    171c:	4e5e           	unlk %fp
    171e:	4e75           	rts

00001720 <mdoprnt>:
    1720:	4e56 fe88      	linkw %fp,#-376
    1724:	48e7 3f3c      	moveml %d2-%d7/%a2-%a5,%sp@-
    1728:	206e 0010      	moveal %fp@(16),%a0
    172c:	286e 000c      	moveal %fp@(12),%a4
    1730:	2d7c 0000 7198 	movel #29080,%fp@(-360)
    1736:	fe98 
    1738:	47f9 0000 1b9c 	lea 1b9c <_putc>,%a3
    173e:	1014           	moveb %a4@,%d0
    1740:	6700 0434      	beqw 1b76 <mdoprnt+0x456>
    1744:	0c00 0025      	cmpib #37,%d0
    1748:	6720           	beqs 176a <mdoprnt+0x4a>
    174a:	49c0           	extbl %d0
    174c:	2f00           	movel %d0,%sp@-
    174e:	2d48 fe8c      	movel %a0,%fp@(-372)
    1752:	4e93           	jsr %a3@
    1754:	588f           	addql #4,%sp
    1756:	2c0c           	movel %a4,%d6
    1758:	6000 040c      	braw 1b66 <mdoprnt+0x446>
    175c:	762b           	moveq #43,%d3
    175e:	6006           	bras 1766 <mdoprnt+0x46>
    1760:	7620           	moveq #32,%d3
    1762:	6002           	bras 1766 <mdoprnt+0x46>
    1764:	2049           	moveal %a1,%a0
    1766:	2846           	moveal %d6,%a4
    1768:	6008           	bras 1772 <mdoprnt+0x52>
    176a:	4203           	clrb %d3
    176c:	4285           	clrl %d5
    176e:	72ff           	moveq #-1,%d1
    1770:	4282           	clrl %d2
    1772:	2c0c           	movel %a4,%d6
    1774:	5286           	addql #1,%d6
    1776:	102c 0001      	moveb %a4@(1),%d0
    177a:	0c00 0058      	cmpib #88,%d0
    177e:	6700 0288      	beqw 1a08 <mdoprnt+0x2e8>
    1782:	6e00 008e      	bgtw 1812 <mdoprnt+0xf2>
    1786:	0c00 0039      	cmpib #57,%d0
    178a:	6e5c           	bgts 17e8 <mdoprnt+0xc8>
    178c:	0c00 0031      	cmpib #49,%d0
    1790:	6c00 0160      	bgew 18f2 <mdoprnt+0x1d2>
    1794:	0c00 002b      	cmpib #43,%d0
    1798:	67c2           	beqs 175c <mdoprnt+0x3c>
    179a:	6e30           	bgts 17cc <mdoprnt+0xac>
    179c:	0c00 0023      	cmpib #35,%d0
    17a0:	6700 00e8      	beqw 188a <mdoprnt+0x16a>
    17a4:	6e12           	bgts 17b8 <mdoprnt+0x98>
    17a6:	4a00           	tstb %d0
    17a8:	6700 03cc      	beqw 1b76 <mdoprnt+0x456>
    17ac:	0c00 0020      	cmpib #32,%d0
    17b0:	6600 03a8      	bnew 1b5a <mdoprnt+0x43a>
    17b4:	6000 00ca      	braw 1880 <mdoprnt+0x160>
    17b8:	0c00 0025      	cmpib #37,%d0
    17bc:	6700 03c4      	beqw 1b82 <mdoprnt+0x462>
    17c0:	0c00 002a      	cmpib #42,%d0
    17c4:	6600 0394      	bnew 1b5a <mdoprnt+0x43a>
    17c8:	6000 00c6      	braw 1890 <mdoprnt+0x170>
    17cc:	0c00 002e      	cmpib #46,%d0
    17d0:	6700 00d2      	beqw 18a4 <mdoprnt+0x184>
    17d4:	0c00 0030      	cmpib #48,%d0
    17d8:	6700 0114      	beqw 18ee <mdoprnt+0x1ce>
    17dc:	0c00 002d      	cmpib #45,%d0
    17e0:	6600 0378      	bnew 1b5a <mdoprnt+0x43a>
    17e4:	6000 00b8      	braw 189e <mdoprnt+0x17e>
    17e8:	0c00 004c      	cmpib #76,%d0
    17ec:	6700 0138      	beqw 1926 <mdoprnt+0x206>
    17f0:	6e0c           	bgts 17fe <mdoprnt+0xde>
    17f2:	0c00 0044      	cmpib #68,%d0
    17f6:	6600 0362      	bnew 1b5a <mdoprnt+0x43a>
    17fa:	6000 0150      	braw 194c <mdoprnt+0x22c>
    17fe:	0c00 004f      	cmpib #79,%d0
    1802:	6700 017a      	beqw 197e <mdoprnt+0x25e>
    1806:	0c00 0055      	cmpib #85,%d0
    180a:	6600 034e      	bnew 1b5a <mdoprnt+0x43a>
    180e:	6000 01ea      	braw 19fa <mdoprnt+0x2da>
    1812:	0c00 006e      	cmpib #110,%d0
    1816:	6700 014a      	beqw 1962 <mdoprnt+0x242>
    181a:	6e32           	bgts 184e <mdoprnt+0x12e>
    181c:	0c00 0068      	cmpib #104,%d0
    1820:	6700 0108      	beqw 192a <mdoprnt+0x20a>
    1824:	6e14           	bgts 183a <mdoprnt+0x11a>
    1826:	0c00 0063      	cmpib #99,%d0
    182a:	6700 010e      	beqw 193a <mdoprnt+0x21a>
    182e:	0c00 0064      	cmpib #100,%d0
    1832:	6600 0326      	bnew 1b5a <mdoprnt+0x43a>
    1836:	6000 0118      	braw 1950 <mdoprnt+0x230>
    183a:	0c00 0069      	cmpib #105,%d0
    183e:	6700 0110      	beqw 1950 <mdoprnt+0x230>
    1842:	0c00 006c      	cmpib #108,%d0
    1846:	6600 0312      	bnew 1b5a <mdoprnt+0x43a>
    184a:	6000 00e6      	braw 1932 <mdoprnt+0x212>
    184e:	0c00 0073      	cmpib #115,%d0
    1852:	6700 0146      	beqw 199a <mdoprnt+0x27a>
    1856:	6e14           	bgts 186c <mdoprnt+0x14c>
    1858:	0c00 006f      	cmpib #111,%d0
    185c:	6700 0124      	beqw 1982 <mdoprnt+0x262>
    1860:	0c00 0070      	cmpib #112,%d0
    1864:	6600 02f4      	bnew 1b5a <mdoprnt+0x43a>
    1868:	6000 0126      	braw 1990 <mdoprnt+0x270>
    186c:	0c00 0075      	cmpib #117,%d0
    1870:	6700 018c      	beqw 19fe <mdoprnt+0x2de>
    1874:	0c00 0078      	cmpib #120,%d0
    1878:	6600 02e0      	bnew 1b5a <mdoprnt+0x43a>
    187c:	6000 0192      	braw 1a10 <mdoprnt+0x2f0>
    1880:	4a03           	tstb %d3
    1882:	6700 fedc      	beqw 1760 <mdoprnt+0x40>
    1886:	6000 fede      	braw 1766 <mdoprnt+0x46>
    188a:	7008           	moveq #8,%d0
    188c:	6000 009e      	braw 192c <mdoprnt+0x20c>
    1890:	43e8 0004      	lea %a0@(4),%a1
    1894:	2a10           	movel %a0@,%d5
    1896:	6c00 fecc      	bgew 1764 <mdoprnt+0x44>
    189a:	4485           	negl %d5
    189c:	2049           	moveal %a1,%a0
    189e:	7e10           	moveq #16,%d7
    18a0:	6000 0092      	braw 1934 <mdoprnt+0x214>
    18a4:	2c0c           	movel %a4,%d6
    18a6:	5486           	addql #2,%d6
    18a8:	0c2c 002a 0002 	cmpib #42,%a4@(2)
    18ae:	6706           	beqs 18b6 <mdoprnt+0x196>
    18b0:	2246           	moveal %d6,%a1
    18b2:	4281           	clrl %d1
    18b4:	6016           	bras 18cc <mdoprnt+0x1ac>
    18b6:	2210           	movel %a0@,%d1
    18b8:	5888           	addql #4,%a0
    18ba:	6026           	bras 18e2 <mdoprnt+0x1c2>
    18bc:	2801           	movel %d1,%d4
    18be:	d884           	addl %d4,%d4
    18c0:	e789           	lsll #3,%d1
    18c2:	2444           	moveal %d4,%a2
    18c4:	d5c1           	addal %d1,%a2
    18c6:	45f2 08d0      	lea %a2@(ffffffffffffffd0,%d0:l),%a2
    18ca:	220a           	movel %a2,%d1
    18cc:	2c09           	movel %a1,%d6
    18ce:	1019           	moveb %a1@+,%d0
    18d0:	6d0e           	blts 18e0 <mdoprnt+0x1c0>
    18d2:	49c0           	extbl %d0
    18d4:	0830 0002 09b0 	btst #2,@(ffffffffff0010f1,%d0:l)
    18da:	ff00 10f1 
    18de:	66dc           	bnes 18bc <mdoprnt+0x19c>
    18e0:	5386           	subql #1,%d6
    18e2:	4a81           	tstl %d1
    18e4:	6c00 fe80      	bgew 1766 <mdoprnt+0x46>
    18e8:	72ff           	moveq #-1,%d1
    18ea:	6000 fe7a      	braw 1766 <mdoprnt+0x46>
    18ee:	7020           	moveq #32,%d0
    18f0:	603a           	bras 192c <mdoprnt+0x20c>
    18f2:	4285           	clrl %d5
    18f4:	6002           	bras 18f8 <mdoprnt+0x1d8>
    18f6:	2c09           	movel %a1,%d6
    18f8:	2005           	movel %d5,%d0
    18fa:	d080           	addl %d0,%d0
    18fc:	e78d           	lsll #3,%d5
    18fe:	2440           	moveal %d0,%a2
    1900:	d5c5           	addal %d5,%a2
    1902:	2246           	moveal %d6,%a1
    1904:	1019           	moveb %a1@+,%d0
    1906:	49c0           	extbl %d0
    1908:	45f2 08d0      	lea %a2@(ffffffffffffffd0,%d0:l),%a2
    190c:	2a0a           	movel %a2,%d5
    190e:	1011           	moveb %a1@,%d0
    1910:	6d00 fe54      	bltw 1766 <mdoprnt+0x46>
    1914:	49c0           	extbl %d0
    1916:	0830 0002 09b0 	btst #2,@(ffffffffff0010f1,%d0:l)
    191c:	ff00 10f1 
    1920:	66d4           	bnes 18f6 <mdoprnt+0x1d6>
    1922:	6000 fe42      	braw 1766 <mdoprnt+0x46>
    1926:	7e02           	moveq #2,%d7
    1928:	600a           	bras 1934 <mdoprnt+0x214>
    192a:	7004           	moveq #4,%d0
    192c:	8480           	orl %d0,%d2
    192e:	6000 fe36      	braw 1766 <mdoprnt+0x46>
    1932:	7e01           	moveq #1,%d7
    1934:	8487           	orl %d7,%d2
    1936:	6000 fe2e      	braw 1766 <mdoprnt+0x46>
    193a:	1d68 0003 fea4 	moveb %a0@(3),%fp@(-348)
    1940:	5888           	addql #4,%a0
    1942:	7801           	moveq #1,%d4
    1944:	45ee fea4      	lea %fp@(-348),%a2
    1948:	6000 0244      	braw 1b8e <mdoprnt+0x46e>
    194c:	7001           	moveq #1,%d0
    194e:	8480           	orl %d0,%d2
    1950:	4be8 0004      	lea %a0@(4),%a5
    1954:	2010           	movel %a0@,%d0
    1956:	6c00 00cc      	bgew 1a24 <mdoprnt+0x304>
    195a:	4480           	negl %d0
    195c:	762d           	moveq #45,%d3
    195e:	6000 00c4      	braw 1a24 <mdoprnt+0x304>
    1962:	4be8 0004      	lea %a0@(4),%a5
    1966:	2050           	moveal %a0@,%a0
    1968:	0802 0000      	btst #0,%d2
    196c:	660a           	bnes 1978 <mdoprnt+0x258>
    196e:	44c2           	movew %d2,%ccr
    1970:	6606           	bnes 1978 <mdoprnt+0x258>
    1972:	4250           	clrw %a0@
    1974:	6000 01f6      	braw 1b6c <mdoprnt+0x44c>
    1978:	4290           	clrl %a0@
    197a:	6000 01f0      	braw 1b6c <mdoprnt+0x44c>
    197e:	7601           	moveq #1,%d3
    1980:	8483           	orl %d3,%d2
    1982:	4be8 0004      	lea %a0@(4),%a5
    1986:	2010           	movel %a0@,%d0
    1988:	4203           	clrb %d3
    198a:	7808           	moveq #8,%d4
    198c:	6000 009e      	braw 1a2c <mdoprnt+0x30c>
    1990:	4be8 0004      	lea %a0@(4),%a5
    1994:	2010           	movel %a0@,%d0
    1996:	6000 0090      	braw 1a28 <mdoprnt+0x308>
    199a:	2248           	moveal %a0,%a1
    199c:	5888           	addql #4,%a0
    199e:	2451           	moveal %a1@,%a2
    19a0:	4a8a           	tstl %a2
    19a2:	6606           	bnes 19aa <mdoprnt+0x28a>
    19a4:	45f9 0000 71a9 	lea 71a9 <__FUNCTION__.884+0x19>,%a2
    19aa:	4a81           	tstl %d1
    19ac:	6d34           	blts 19e2 <mdoprnt+0x2c2>
    19ae:	2f01           	movel %d1,%sp@-
    19b0:	42a7           	clrl %sp@-
    19b2:	2f0a           	movel %a2,%sp@-
    19b4:	2d41 fe88      	movel %d1,%fp@(-376)
    19b8:	2d48 fe8c      	movel %a0,%fp@(-372)
    19bc:	4eb9 0000 259c 	jsr 259c <memchr>
    19c2:	4fef 000c      	lea %sp@(12),%sp
    19c6:	222e fe88      	movel %fp@(-376),%d1
    19ca:	206e fe8c      	moveal %fp@(-372),%a0
    19ce:	4a80           	tstl %d0
    19d0:	6700 01ba      	beqw 1b8c <mdoprnt+0x46c>
    19d4:	2800           	movel %d0,%d4
    19d6:	988a           	subl %a2,%d4
    19d8:	b284           	cmpl %d4,%d1
    19da:	6d00 01b0      	bltw 1b8c <mdoprnt+0x46c>
    19de:	6000 01ae      	braw 1b8e <mdoprnt+0x46e>
    19e2:	2f0a           	movel %a2,%sp@-
    19e4:	2d48 fe8c      	movel %a0,%fp@(-372)
    19e8:	4eb9 0000 1be0 	jsr 1be0 <strlen>
    19ee:	2800           	movel %d0,%d4
    19f0:	588f           	addql #4,%sp
    19f2:	206e fe8c      	moveal %fp@(-372),%a0
    19f6:	6000 0196      	braw 1b8e <mdoprnt+0x46e>
    19fa:	7e01           	moveq #1,%d7
    19fc:	8487           	orl %d7,%d2
    19fe:	4be8 0004      	lea %a0@(4),%a5
    1a02:	2010           	movel %a0@,%d0
    1a04:	4203           	clrb %d3
    1a06:	601c           	bras 1a24 <mdoprnt+0x304>
    1a08:	2d7c 0000 71b0 	movel #29104,%fp@(-360)
    1a0e:	fe98 
    1a10:	4be8 0004      	lea %a0@(4),%a5
    1a14:	2010           	movel %a0@,%d0
    1a16:	44c2           	movew %d2,%ccr
    1a18:	6a0e           	bpls 1a28 <mdoprnt+0x308>
    1a1a:	4a80           	tstl %d0
    1a1c:	670a           	beqs 1a28 <mdoprnt+0x308>
    1a1e:	7640           	moveq #64,%d3
    1a20:	8483           	orl %d3,%d2
    1a22:	6004           	bras 1a28 <mdoprnt+0x308>
    1a24:	780a           	moveq #10,%d4
    1a26:	6004           	bras 1a2c <mdoprnt+0x30c>
    1a28:	4203           	clrb %d3
    1a2a:	7810           	moveq #16,%d4
    1a2c:	4a81           	tstl %d1
    1a2e:	6d04           	blts 1a34 <mdoprnt+0x314>
    1a30:	7edf           	moveq #-33,%d7
    1a32:	c487           	andl %d7,%d2
    1a34:	4a80           	tstl %d0
    1a36:	6604           	bnes 1a3c <mdoprnt+0x31c>
    1a38:	4a81           	tstl %d1
    1a3a:	6740           	beqs 1a7c <mdoprnt+0x35c>
    1a3c:	204e           	moveal %fp,%a0
    1a3e:	6002           	bras 1a42 <mdoprnt+0x322>
    1a40:	204a           	moveal %a2,%a0
    1a42:	2448           	moveal %a0,%a2
    1a44:	4c44 0007      	divull %d4,%d7,%d0
    1a48:	226e fe98      	moveal %fp@(-360),%a1
    1a4c:	1e31 7800      	moveb %a1@(0000000000000000,%d7:l),%d7
    1a50:	1507           	moveb %d7,%a2@-
    1a52:	4a80           	tstl %d0
    1a54:	66ea           	bnes 1a40 <mdoprnt+0x320>
    1a56:	2d7c 0000 7198 	movel #29080,%fp@(-360)
    1a5c:	fe98 
    1a5e:	44c2           	movew %d2,%ccr
    1a60:	6a1c           	bpls 1a7e <mdoprnt+0x35e>
    1a62:	103c 0008      	moveb #8,%d0
    1a66:	b084           	cmpl %d4,%d0
    1a68:	6614           	bnes 1a7e <mdoprnt+0x35e>
    1a6a:	0c07 0030      	cmpib #48,%d7
    1a6e:	670e           	beqs 1a7e <mdoprnt+0x35e>
    1a70:	45e8 fffe      	lea %a0@(-2),%a2
    1a74:	117c 0030 fffe 	moveb #48,%a0@(-2)
    1a7a:	6002           	bras 1a7e <mdoprnt+0x35e>
    1a7c:	244e           	moveal %fp,%a2
    1a7e:	280e           	movel %fp,%d4
    1a80:	988a           	subl %a2,%d4
    1a82:	4a03           	tstb %d3
    1a84:	670a           	beqs 1a90 <mdoprnt+0x370>
    1a86:	2e04           	movel %d4,%d7
    1a88:	5287           	addql #1,%d7
    1a8a:	2d41 fea0      	movel %d1,%fp@(-352)
    1a8e:	6006           	bras 1a96 <mdoprnt+0x376>
    1a90:	2d41 fea0      	movel %d1,%fp@(-352)
    1a94:	2e04           	movel %d4,%d7
    1a96:	7040           	moveq #64,%d0
    1a98:	c082           	andl %d2,%d0
    1a9a:	2d40 fe94      	movel %d0,%fp@(-364)
    1a9e:	6702           	beqs 1aa2 <mdoprnt+0x382>
    1aa0:	5487           	addql #2,%d7
    1aa2:	2d47 fe9c      	movel %d7,%fp@(-356)
    1aa6:	beae fea0      	cmpl %fp@(-352),%d7
    1aaa:	6c06           	bges 1ab2 <mdoprnt+0x392>
    1aac:	2d6e fea0 fe9c 	movel %fp@(-352),%fp@(-356)
    1ab2:	7030           	moveq #48,%d0
    1ab4:	c082           	andl %d2,%d0
    1ab6:	2d40 fe90      	movel %d0,%fp@(-368)
    1aba:	6620           	bnes 1adc <mdoprnt+0x3bc>
    1abc:	4a85           	tstl %d5
    1abe:	671c           	beqs 1adc <mdoprnt+0x3bc>
    1ac0:	222e fe9c      	movel %fp@(-356),%d1
    1ac4:	6012           	bras 1ad8 <mdoprnt+0x3b8>
    1ac6:	4878 0020      	pea 20 <chuser>
    1aca:	2d41 fe88      	movel %d1,%fp@(-376)
    1ace:	4e93           	jsr %a3@
    1ad0:	222e fe88      	movel %fp@(-376),%d1
    1ad4:	5281           	addql #1,%d1
    1ad6:	588f           	addql #4,%sp
    1ad8:	ba81           	cmpl %d1,%d5
    1ada:	6eea           	bgts 1ac6 <mdoprnt+0x3a6>
    1adc:	4a03           	tstb %d3
    1ade:	6708           	beqs 1ae8 <mdoprnt+0x3c8>
    1ae0:	49c3           	extbl %d3
    1ae2:	2f03           	movel %d3,%sp@-
    1ae4:	4e93           	jsr %a3@
    1ae6:	588f           	addql #4,%sp
    1ae8:	4aae fe94      	tstl %fp@(-364)
    1aec:	6712           	beqs 1b00 <mdoprnt+0x3e0>
    1aee:	4878 0030      	pea 30 <endvec>
    1af2:	4e93           	jsr %a3@
    1af4:	162c 0001      	moveb %a4@(1),%d3
    1af8:	49c3           	extbl %d3
    1afa:	2f03           	movel %d3,%sp@-
    1afc:	4e93           	jsr %a3@
    1afe:	508f           	addql #8,%sp
    1b00:	7020           	moveq #32,%d0
    1b02:	b0ae fe90      	cmpl %fp@(-368),%d0
    1b06:	6620           	bnes 1b28 <mdoprnt+0x408>
    1b08:	262e fe9c      	movel %fp@(-356),%d3
    1b0c:	600a           	bras 1b18 <mdoprnt+0x3f8>
    1b0e:	4878 0030      	pea 30 <endvec>
    1b12:	4e93           	jsr %a3@
    1b14:	5283           	addql #1,%d3
    1b16:	588f           	addql #4,%sp
    1b18:	ba83           	cmpl %d3,%d5
    1b1a:	6ef2           	bgts 1b0e <mdoprnt+0x3ee>
    1b1c:	600a           	bras 1b28 <mdoprnt+0x408>
    1b1e:	4878 0030      	pea 30 <endvec>
    1b22:	4e93           	jsr %a3@
    1b24:	5287           	addql #1,%d7
    1b26:	588f           	addql #4,%sp
    1b28:	beae fea0      	cmpl %fp@(-352),%d7
    1b2c:	6df0           	blts 1b1e <mdoprnt+0x3fe>
    1b2e:	600a           	bras 1b3a <mdoprnt+0x41a>
    1b30:	161a           	moveb %a2@+,%d3
    1b32:	49c3           	extbl %d3
    1b34:	2f03           	movel %d3,%sp@-
    1b36:	4e93           	jsr %a3@
    1b38:	588f           	addql #4,%sp
    1b3a:	5384           	subql #1,%d4
    1b3c:	6af2           	bpls 1b30 <mdoprnt+0x410>
    1b3e:	0802 0004      	btst #4,%d2
    1b42:	6728           	beqs 1b6c <mdoprnt+0x44c>
    1b44:	242e fe9c      	movel %fp@(-356),%d2
    1b48:	600a           	bras 1b54 <mdoprnt+0x434>
    1b4a:	4878 0020      	pea 20 <chuser>
    1b4e:	4e93           	jsr %a3@
    1b50:	5282           	addql #1,%d2
    1b52:	588f           	addql #4,%sp
    1b54:	ba82           	cmpl %d2,%d5
    1b56:	6ef2           	bgts 1b4a <mdoprnt+0x42a>
    1b58:	6012           	bras 1b6c <mdoprnt+0x44c>
    1b5a:	49c0           	extbl %d0
    1b5c:	2f00           	movel %d0,%sp@-
    1b5e:	2d48 fe8c      	movel %a0,%fp@(-372)
    1b62:	4e93           	jsr %a3@
    1b64:	588f           	addql #4,%sp
    1b66:	206e fe8c      	moveal %fp@(-372),%a0
    1b6a:	2a48           	moveal %a0,%a5
    1b6c:	2846           	moveal %d6,%a4
    1b6e:	528c           	addql #1,%a4
    1b70:	204d           	moveal %a5,%a0
    1b72:	6000 fbca      	braw 173e <mdoprnt+0x1e>
    1b76:	4280           	clrl %d0
    1b78:	4cee 3cfc fe60 	moveml %fp@(-416),%d2-%d7/%a2-%a5
    1b7e:	4e5e           	unlk %fp
    1b80:	4e75           	rts
    1b82:	7801           	moveq #1,%d4
    1b84:	45f9 0000 71c1 	lea 71c1 <__FUNCTION__.884+0x31>,%a2
    1b8a:	6002           	bras 1b8e <mdoprnt+0x46e>
    1b8c:	2801           	movel %d1,%d4
    1b8e:	2a48           	moveal %a0,%a5
    1b90:	2e04           	movel %d4,%d7
    1b92:	4203           	clrb %d3
    1b94:	42ae fea0      	clrl %fp@(-352)
    1b98:	6000 fefc      	braw 1a96 <mdoprnt+0x376>

00001b9c <_putc>:
    1b9c:	4e56 0000      	linkw %fp,#0
    1ba0:	48e7 fffe      	moveml %d0-%fp,%sp@-
    1ba4:	202e 0008      	movel %fp@(8),%d0
    1ba8:	0280 0000 00ff 	andil #255,%d0
    1bae:	4eb9 0000 10dc 	jsr 10dc <_chbo>
    1bb4:	4cdf 7fff      	moveml %sp@+,%d0-%fp
    1bb8:	4e5e           	unlk %fp
    1bba:	4e75           	rts

00001bbc <_main>:
    1bbc:	4e75           	rts

00001bbe <_putcon>:
    1bbe:	4e56 0000      	linkw %fp,#0
    1bc2:	48e7 fffe      	moveml %d0-%fp,%sp@-
    1bc6:	202e 0008      	movel %fp@(8),%d0
    1bca:	0280 0000 00ff 	andil #255,%d0
    1bd0:	4eb9 0000 10dc 	jsr 10dc <_chbo>
    1bd6:	4cdf 7fff      	moveml %sp@+,%d0-%fp
    1bda:	4e5e           	unlk %fp
    1bdc:	4e75           	rts
	...

00001be0 <strlen>:
    1be0:	4e56 0000      	linkw %fp,#0
    1be4:	206e 0008      	moveal %fp@(8),%a0
    1be8:	4280           	clrl %d0
    1bea:	6002           	bras 1bee <strlen+0xe>
    1bec:	5280           	addql #1,%d0
    1bee:	4a18           	tstb %a0@+
    1bf0:	66fa           	bnes 1bec <strlen+0xc>
    1bf2:	4e5e           	unlk %fp
    1bf4:	4e75           	rts
	...

00001bf8 <strtoul>:
    1bf8:	4e56 0000      	linkw %fp,#0
    1bfc:	48e7 3820      	moveml %d2-%d4/%a2,%sp@-
    1c00:	206e 0008      	moveal %fp@(8),%a0
    1c04:	246e 000c      	moveal %fp@(12),%a2
    1c08:	222e 0010      	movel %fp@(16),%d1
    1c0c:	663a           	bnes 1c48 <strtoul+0x50>
    1c0e:	0c10 0030      	cmpib #48,%a0@
    1c12:	662c           	bnes 1c40 <strtoul+0x48>
    1c14:	43e8 0001      	lea %a0@(1),%a1
    1c18:	0c28 0078 0001 	cmpib #120,%a0@(1)
    1c1e:	6624           	bnes 1c44 <strtoul+0x4c>
    1c20:	1028 0002      	moveb %a0@(2),%d0
    1c24:	49c0           	extbl %d0
    1c26:	1030 09b0 ff00 	moveb @(ffffffffff0010f1,%d0:l),%d0
    1c2c:	10f1 
    1c2e:	49c0           	extbl %d0
    1c30:	123c 0044      	moveb #68,%d1
    1c34:	c081           	andl %d1,%d0
    1c36:	670c           	beqs 1c44 <strtoul+0x4c>
    1c38:	5488           	addql #2,%a0
    1c3a:	123c 0010      	moveb #16,%d1
    1c3e:	6008           	bras 1c48 <strtoul+0x50>
    1c40:	720a           	moveq #10,%d1
    1c42:	6004           	bras 1c48 <strtoul+0x50>
    1c44:	2049           	moveal %a1,%a0
    1c46:	7208           	moveq #8,%d1
    1c48:	4280           	clrl %d0
    1c4a:	6006           	bras 1c52 <strtoul+0x5a>
    1c4c:	4c01 0800      	mulsl %d1,%d0
    1c50:	d089           	addl %a1,%d0
    1c52:	2608           	movel %a0,%d3
    1c54:	1418           	moveb %a0@+,%d2
    1c56:	49c2           	extbl %d2
    1c58:	2242           	moveal %d2,%a1
    1c5a:	1431 0170 ff00 	moveb %a1@(ffffffffff0010f1),%d2
    1c60:	10f1 
    1c62:	49c2           	extbl %d2
    1c64:	7844           	moveq #68,%d4
    1c66:	c882           	andl %d2,%d4
    1c68:	6720           	beqs 1c8a <strtoul+0x92>
    1c6a:	44c2           	movew %d2,%ccr
    1c6c:	6606           	bnes 1c74 <strtoul+0x7c>
    1c6e:	43e9 ffd0      	lea %a1@(-48),%a1
    1c72:	6012           	bras 1c86 <strtoul+0x8e>
    1c74:	0802 0001      	btst #1,%d2
    1c78:	6708           	beqs 1c82 <strtoul+0x8a>
    1c7a:	2809           	movel %a1,%d4
    1c7c:	745f           	moveq #95,%d2
    1c7e:	c882           	andl %d2,%d4
    1c80:	2244           	moveal %d4,%a1
    1c82:	43e9 ffc9      	lea %a1@(-55),%a1
    1c86:	b289           	cmpl %a1,%d1
    1c88:	62c2           	bhis 1c4c <strtoul+0x54>
    1c8a:	4a8a           	tstl %a2
    1c8c:	6702           	beqs 1c90 <strtoul+0x98>
    1c8e:	2483           	movel %d3,%a2@
    1c90:	4cdf 041c      	moveml %sp@+,%d2-%d4/%a2
    1c94:	4e5e           	unlk %fp
    1c96:	4e75           	rts

00001c98 <strtol>:
    1c98:	4e56 0000      	linkw %fp,#0
    1c9c:	48e7 3c20      	moveml %d2-%d5/%a2,%sp@-
    1ca0:	206e 0008      	moveal %fp@(8),%a0
    1ca4:	246e 000c      	moveal %fp@(12),%a2
    1ca8:	222e 0010      	movel %fp@(16),%d1
    1cac:	1010           	moveb %a0@,%d0
    1cae:	1400           	moveb %d0,%d2
    1cb0:	49c2           	extbl %d2
    1cb2:	0830 0002 29b0 	btst #2,@(ffffffffff0010f1,%d2:l)
    1cb8:	ff00 10f1 
    1cbc:	6610           	bnes 1cce <strtol+0x36>
    1cbe:	0c00 002d      	cmpib #45,%d0
    1cc2:	57c2           	seq %d2
    1cc4:	49c2           	extbl %d2
    1cc6:	7001           	moveq #1,%d0
    1cc8:	8480           	orl %d0,%d2
    1cca:	5288           	addql #1,%a0
    1ccc:	6002           	bras 1cd0 <strtol+0x38>
    1cce:	7401           	moveq #1,%d2
    1cd0:	4a81           	tstl %d1
    1cd2:	663a           	bnes 1d0e <strtol+0x76>
    1cd4:	0c10 0030      	cmpib #48,%a0@
    1cd8:	662c           	bnes 1d06 <strtol+0x6e>
    1cda:	43e8 0001      	lea %a0@(1),%a1
    1cde:	0c28 0078 0001 	cmpib #120,%a0@(1)
    1ce4:	6624           	bnes 1d0a <strtol+0x72>
    1ce6:	1028 0002      	moveb %a0@(2),%d0
    1cea:	49c0           	extbl %d0
    1cec:	1030 09b0 ff00 	moveb @(ffffffffff0010f1,%d0:l),%d0
    1cf2:	10f1 
    1cf4:	49c0           	extbl %d0
    1cf6:	123c 0044      	moveb #68,%d1
    1cfa:	c081           	andl %d1,%d0
    1cfc:	670c           	beqs 1d0a <strtol+0x72>
    1cfe:	5488           	addql #2,%a0
    1d00:	123c 0010      	moveb #16,%d1
    1d04:	6008           	bras 1d0e <strtol+0x76>
    1d06:	720a           	moveq #10,%d1
    1d08:	6004           	bras 1d0e <strtol+0x76>
    1d0a:	2049           	moveal %a1,%a0
    1d0c:	7208           	moveq #8,%d1
    1d0e:	4280           	clrl %d0
    1d10:	6006           	bras 1d18 <strtol+0x80>
    1d12:	4c01 0800      	mulsl %d1,%d0
    1d16:	d089           	addl %a1,%d0
    1d18:	2808           	movel %a0,%d4
    1d1a:	1618           	moveb %a0@+,%d3
    1d1c:	49c3           	extbl %d3
    1d1e:	2243           	moveal %d3,%a1
    1d20:	1631 0170 ff00 	moveb %a1@(ffffffffff0010f1),%d3
    1d26:	10f1 
    1d28:	49c3           	extbl %d3
    1d2a:	7a44           	moveq #68,%d5
    1d2c:	ca83           	andl %d3,%d5
    1d2e:	6720           	beqs 1d50 <strtol+0xb8>
    1d30:	44c3           	movew %d3,%ccr
    1d32:	6606           	bnes 1d3a <strtol+0xa2>
    1d34:	43e9 ffd0      	lea %a1@(-48),%a1
    1d38:	6012           	bras 1d4c <strtol+0xb4>
    1d3a:	0803 0001      	btst #1,%d3
    1d3e:	6708           	beqs 1d48 <strtol+0xb0>
    1d40:	2a09           	movel %a1,%d5
    1d42:	765f           	moveq #95,%d3
    1d44:	ca83           	andl %d3,%d5
    1d46:	2245           	moveal %d5,%a1
    1d48:	43e9 ffc9      	lea %a1@(-55),%a1
    1d4c:	b289           	cmpl %a1,%d1
    1d4e:	62c2           	bhis 1d12 <strtol+0x7a>
    1d50:	4a8a           	tstl %a2
    1d52:	6702           	beqs 1d56 <strtol+0xbe>
    1d54:	2484           	movel %d4,%a2@
    1d56:	4c02 0800      	mulsl %d2,%d0
    1d5a:	4cdf 043c      	moveml %sp@+,%d2-%d5/%a2
    1d5e:	4e5e           	unlk %fp
    1d60:	4e75           	rts

00001d62 <strcpy>:
    1d62:	4e56 0000      	linkw %fp,#0
    1d66:	202e 0008      	movel %fp@(8),%d0
    1d6a:	226e 000c      	moveal %fp@(12),%a1
    1d6e:	2040           	moveal %d0,%a0
    1d70:	1219           	moveb %a1@+,%d1
    1d72:	10c1           	moveb %d1,%a0@+
    1d74:	66fa           	bnes 1d70 <strcpy+0xe>
    1d76:	4e5e           	unlk %fp
    1d78:	4e75           	rts

00001d7a <strncpy>:
    1d7a:	4e56 0000      	linkw %fp,#0
    1d7e:	2f03           	movel %d3,%sp@-
    1d80:	2f02           	movel %d2,%sp@-
    1d82:	202e 0008      	movel %fp@(8),%d0
    1d86:	262e 0010      	movel %fp@(16),%d3
    1d8a:	226e 000c      	moveal %fp@(12),%a1
    1d8e:	2040           	moveal %d0,%a0
    1d90:	4281           	clrl %d1
    1d92:	b681           	cmpl %d1,%d3
    1d94:	670a           	beqs 1da0 <strncpy+0x26>
    1d96:	1419           	moveb %a1@+,%d2
    1d98:	10c2           	moveb %d2,%a0@+
    1d9a:	5281           	addql #1,%d1
    1d9c:	4a02           	tstb %d2
    1d9e:	66f2           	bnes 1d92 <strncpy+0x18>
    1da0:	241f           	movel %sp@+,%d2
    1da2:	261f           	movel %sp@+,%d3
    1da4:	4e5e           	unlk %fp
    1da6:	4e75           	rts

00001da8 <strcat>:
    1da8:	4e56 0000      	linkw %fp,#0
    1dac:	202e 0008      	movel %fp@(8),%d0
    1db0:	2240           	moveal %d0,%a1
    1db2:	2049           	moveal %a1,%a0
    1db4:	5289           	addql #1,%a1
    1db6:	4a10           	tstb %a0@
    1db8:	66f8           	bnes 1db2 <strcat+0xa>
    1dba:	226e 000c      	moveal %fp@(12),%a1
    1dbe:	1219           	moveb %a1@+,%d1
    1dc0:	10c1           	moveb %d1,%a0@+
    1dc2:	66fa           	bnes 1dbe <strcat+0x16>
    1dc4:	4e5e           	unlk %fp
    1dc6:	4e75           	rts

00001dc8 <strncat>:
    1dc8:	4e56 0000      	linkw %fp,#0
    1dcc:	2f02           	movel %d2,%sp@-
    1dce:	202e 0008      	movel %fp@(8),%d0
    1dd2:	222e 0010      	movel %fp@(16),%d1
    1dd6:	671a           	beqs 1df2 <strncat+0x2a>
    1dd8:	2240           	moveal %d0,%a1
    1dda:	2049           	moveal %a1,%a0
    1ddc:	5289           	addql #1,%a1
    1dde:	4a10           	tstb %a0@
    1de0:	66f8           	bnes 1dda <strncat+0x12>
    1de2:	226e 000c      	moveal %fp@(12),%a1
    1de6:	6004           	bras 1dec <strncat+0x24>
    1de8:	5381           	subql #1,%d1
    1dea:	6706           	beqs 1df2 <strncat+0x2a>
    1dec:	1419           	moveb %a1@+,%d2
    1dee:	10c2           	moveb %d2,%a0@+
    1df0:	66f6           	bnes 1de8 <strncat+0x20>
    1df2:	241f           	movel %sp@+,%d2
    1df4:	4e5e           	unlk %fp
    1df6:	4e75           	rts

00001df8 <mstrcmp>:
    1df8:	4e56 0000      	linkw %fp,#0
    1dfc:	226e 000c      	moveal %fp@(12),%a1
    1e00:	206e 0008      	moveal %fp@(8),%a0
    1e04:	1218           	moveb %a0@+,%d1
    1e06:	1001           	moveb %d1,%d0
    1e08:	9019           	subb %a1@+,%d0
    1e0a:	6604           	bnes 1e10 <mstrcmp+0x18>
    1e0c:	4a01           	tstb %d1
    1e0e:	66f4           	bnes 1e04 <mstrcmp+0xc>
    1e10:	49c0           	extbl %d0
    1e12:	4e5e           	unlk %fp
    1e14:	4e75           	rts

00001e16 <strncmp>:
    1e16:	4e56 0000      	linkw %fp,#0
    1e1a:	2f02           	movel %d2,%sp@-
    1e1c:	222e 0010      	movel %fp@(16),%d1
    1e20:	226e 0008      	moveal %fp@(8),%a1
    1e24:	206e 000c      	moveal %fp@(12),%a0
    1e28:	600e           	bras 1e38 <strncmp+0x22>
    1e2a:	1419           	moveb %a1@+,%d2
    1e2c:	1002           	moveb %d2,%d0
    1e2e:	9018           	subb %a0@+,%d0
    1e30:	660c           	bnes 1e3e <strncmp+0x28>
    1e32:	4a02           	tstb %d2
    1e34:	6608           	bnes 1e3e <strncmp+0x28>
    1e36:	5381           	subql #1,%d1
    1e38:	4a81           	tstl %d1
    1e3a:	66ee           	bnes 1e2a <strncmp+0x14>
    1e3c:	4200           	clrb %d0
    1e3e:	49c0           	extbl %d0
    1e40:	241f           	movel %sp@+,%d2
    1e42:	4e5e           	unlk %fp
    1e44:	4e75           	rts

00001e46 <strchr>:
    1e46:	4e56 0000      	linkw %fp,#0
    1e4a:	2f02           	movel %d2,%sp@-
    1e4c:	242e 000c      	movel %fp@(12),%d2
    1e50:	206e 0008      	moveal %fp@(8),%a0
    1e54:	6004           	bras 1e5a <strchr+0x14>
    1e56:	4a01           	tstb %d1
    1e58:	670c           	beqs 1e66 <strchr+0x20>
    1e5a:	2008           	movel %a0,%d0
    1e5c:	1210           	moveb %a0@,%d1
    1e5e:	5288           	addql #1,%a0
    1e60:	b401           	cmpb %d1,%d2
    1e62:	66f2           	bnes 1e56 <strchr+0x10>
    1e64:	6002           	bras 1e68 <strchr+0x22>
    1e66:	4280           	clrl %d0
    1e68:	241f           	movel %sp@+,%d2
    1e6a:	4e5e           	unlk %fp
    1e6c:	4e75           	rts

00001e6e <strnlen>:
    1e6e:	4e56 0000      	linkw %fp,#0
    1e72:	2f0a           	movel %a2,%sp@-
    1e74:	226e 0008      	moveal %fp@(8),%a1
    1e78:	206e 000c      	moveal %fp@(12),%a0
    1e7c:	2209           	movel %a1,%d1
    1e7e:	2001           	movel %d1,%d0
    1e80:	4a88           	tstl %a0
    1e82:	670a           	beqs 1e8e <strnlen+0x20>
    1e84:	5281           	addql #1,%d1
    1e86:	5388           	subql #1,%a0
    1e88:	2440           	moveal %d0,%a2
    1e8a:	4a12           	tstb %a2@
    1e8c:	66f0           	bnes 1e7e <strnlen+0x10>
    1e8e:	9089           	subl %a1,%d0
    1e90:	245f           	moveal %sp@+,%a2
    1e92:	4e5e           	unlk %fp
    1e94:	4e75           	rts

00001e96 <strspn>:
    1e96:	4e56 0000      	linkw %fp,#0
    1e9a:	2f03           	movel %d3,%sp@-
    1e9c:	2f02           	movel %d2,%sp@-
    1e9e:	262e 000c      	movel %fp@(12),%d3
    1ea2:	206e 0008      	moveal %fp@(8),%a0
    1ea6:	4280           	clrl %d0
    1ea8:	600e           	bras 1eb8 <strspn+0x22>
    1eaa:	b401           	cmpb %d1,%d2
    1eac:	6604           	bnes 1eb2 <strspn+0x1c>
    1eae:	5280           	addql #1,%d0
    1eb0:	6006           	bras 1eb8 <strspn+0x22>
    1eb2:	1419           	moveb %a1@+,%d2
    1eb4:	66f4           	bnes 1eaa <strspn+0x14>
    1eb6:	6008           	bras 1ec0 <strspn+0x2a>
    1eb8:	1218           	moveb %a0@+,%d1
    1eba:	6704           	beqs 1ec0 <strspn+0x2a>
    1ebc:	2243           	moveal %d3,%a1
    1ebe:	60f2           	bras 1eb2 <strspn+0x1c>
    1ec0:	241f           	movel %sp@+,%d2
    1ec2:	261f           	movel %sp@+,%d3
    1ec4:	4e5e           	unlk %fp
    1ec6:	4e75           	rts

00001ec8 <strpbrk>:
    1ec8:	4e56 0000      	linkw %fp,#0
    1ecc:	2f03           	movel %d3,%sp@-
    1ece:	2f02           	movel %d2,%sp@-
    1ed0:	262e 000c      	movel %fp@(12),%d3
    1ed4:	206e 0008      	moveal %fp@(8),%a0
    1ed8:	6008           	bras 1ee2 <strpbrk+0x1a>
    1eda:	b401           	cmpb %d1,%d2
    1edc:	6710           	beqs 1eee <strpbrk+0x26>
    1ede:	1419           	moveb %a1@+,%d2
    1ee0:	66f8           	bnes 1eda <strpbrk+0x12>
    1ee2:	2008           	movel %a0,%d0
    1ee4:	1218           	moveb %a0@+,%d1
    1ee6:	6704           	beqs 1eec <strpbrk+0x24>
    1ee8:	2243           	moveal %d3,%a1
    1eea:	60f2           	bras 1ede <strpbrk+0x16>
    1eec:	4280           	clrl %d0
    1eee:	241f           	movel %sp@+,%d2
    1ef0:	261f           	movel %sp@+,%d3
    1ef2:	4e5e           	unlk %fp
    1ef4:	4e75           	rts

00001ef6 <strtok>:
    1ef6:	4e56 0000      	linkw %fp,#0
    1efa:	2f0a           	movel %a2,%sp@-
    1efc:	2f02           	movel %d2,%sp@-
    1efe:	246e 0008      	moveal %fp@(8),%a2
    1f02:	242e 000c      	movel %fp@(12),%d2
    1f06:	4a8a           	tstl %a2
    1f08:	660a           	bnes 1f14 <strtok+0x1e>
    1f0a:	2479 ff00 1380 	moveal ff001380 <_data_end>,%a2
    1f10:	4a8a           	tstl %a2
    1f12:	6736           	beqs 1f4a <strtok+0x54>
    1f14:	2f02           	movel %d2,%sp@-
    1f16:	2f0a           	movel %a2,%sp@-
    1f18:	4eba ff7c      	jsr %pc@(1e96 <strspn>)
    1f1c:	508f           	addql #8,%sp
    1f1e:	d5c0           	addal %d0,%a2
    1f20:	4a12           	tstb %a2@
    1f22:	660a           	bnes 1f2e <strtok+0x38>
    1f24:	42b9 ff00 1380 	clrl ff001380 <_data_end>
    1f2a:	95ca           	subal %a2,%a2
    1f2c:	601c           	bras 1f4a <strtok+0x54>
    1f2e:	2f02           	movel %d2,%sp@-
    1f30:	2f0a           	movel %a2,%sp@-
    1f32:	4eba ff94      	jsr %pc@(1ec8 <strpbrk>)
    1f36:	508f           	addql #8,%sp
    1f38:	2040           	moveal %d0,%a0
    1f3a:	4a80           	tstl %d0
    1f3c:	6706           	beqs 1f44 <strtok+0x4e>
    1f3e:	4a10           	tstb %a0@
    1f40:	6702           	beqs 1f44 <strtok+0x4e>
    1f42:	4218           	clrb %a0@+
    1f44:	23c8 ff00 1380 	movel %a0,ff001380 <_data_end>
    1f4a:	200a           	movel %a2,%d0
    1f4c:	242e fff8      	movel %fp@(-8),%d2
    1f50:	246e fffc      	moveal %fp@(-4),%a2
    1f54:	4e5e           	unlk %fp
    1f56:	4e75           	rts

00001f58 <bcopy>:
    1f58:	4e56 0000      	linkw %fp,#0
    1f5c:	202e 000c      	movel %fp@(12),%d0
    1f60:	222e 0010      	movel %fp@(16),%d1
    1f64:	226e 0008      	moveal %fp@(8),%a1
    1f68:	2040           	moveal %d0,%a0
    1f6a:	6002           	bras 1f6e <bcopy+0x16>
    1f6c:	10d9           	moveb %a1@+,%a0@+
    1f6e:	51c9 fffc      	dbf %d1,1f6c <bcopy+0x14>
    1f72:	4241           	clrw %d1
    1f74:	5381           	subql #1,%d1
    1f76:	64f4           	bccs 1f6c <bcopy+0x14>
    1f78:	4e5e           	unlk %fp
    1f7a:	4e75           	rts

00001f7c <memmove>:
    1f7c:	4e56 0000      	linkw %fp,#0
    1f80:	2f0a           	movel %a2,%sp@-
    1f82:	202e 0008      	movel %fp@(8),%d0
    1f86:	206e 000c      	moveal %fp@(12),%a0
    1f8a:	222e 0010      	movel %fp@(16),%d1
    1f8e:	2240           	moveal %d0,%a1
    1f90:	b1c0           	cmpal %d0,%a0
    1f92:	6510           	bcss 1fa4 <memmove+0x28>
    1f94:	6002           	bras 1f98 <memmove+0x1c>
    1f96:	12d8           	moveb %a0@+,%a1@+
    1f98:	51c9 fffc      	dbf %d1,1f96 <memmove+0x1a>
    1f9c:	4241           	clrw %d1
    1f9e:	5381           	subql #1,%d1
    1fa0:	64f4           	bccs 1f96 <memmove+0x1a>
    1fa2:	601c           	bras 1fc0 <memmove+0x44>
    1fa4:	d3c1           	addal %d1,%a1
    1fa6:	45f0 1800      	lea %a0@(0000000000000000,%d1:l),%a2
    1faa:	2041           	moveal %d1,%a0
    1fac:	4481           	negl %d1
    1fae:	d5c1           	addal %d1,%a2
    1fb0:	d3c1           	addal %d1,%a1
    1fb2:	6008           	bras 1fbc <memmove+0x40>
    1fb4:	11b0 a8ff 98ff 	moveb %a0@(ffffffffffffffff,%a2:l),%a0@(ffffffffffffffff,%a1:l)
    1fba:	5388           	subql #1,%a0
    1fbc:	4a88           	tstl %a0
    1fbe:	66f4           	bnes 1fb4 <memmove+0x38>
    1fc0:	245f           	moveal %sp@+,%a2
    1fc2:	4e5e           	unlk %fp
    1fc4:	4e75           	rts

00001fc6 <memscan>:
    1fc6:	4e56 0000      	linkw %fp,#0
    1fca:	2f0a           	movel %a2,%sp@-
    1fcc:	2f02           	movel %d2,%sp@-
    1fce:	226e 000c      	moveal %fp@(12),%a1
    1fd2:	206e 0010      	moveal %fp@(16),%a0
    1fd6:	222e 0008      	movel %fp@(8),%d1
    1fda:	600e           	bras 1fea <memscan+0x24>
    1fdc:	5281           	addql #1,%d1
    1fde:	2440           	moveal %d0,%a2
    1fe0:	4282           	clrl %d2
    1fe2:	1412           	moveb %a2@,%d2
    1fe4:	b3c2           	cmpal %d2,%a1
    1fe6:	6708           	beqs 1ff0 <memscan+0x2a>
    1fe8:	5388           	subql #1,%a0
    1fea:	2001           	movel %d1,%d0
    1fec:	4a88           	tstl %a0
    1fee:	66ec           	bnes 1fdc <memscan+0x16>
    1ff0:	241f           	movel %sp@+,%d2
    1ff2:	245f           	moveal %sp@+,%a2
    1ff4:	4e5e           	unlk %fp
    1ff6:	4e75           	rts

00001ff8 <strstr>:
    1ff8:	4e56 0000      	linkw %fp,#0
    1ffc:	48e7 3c20      	moveml %d2-%d5/%a2,%sp@-
    2000:	242e 0008      	movel %fp@(8),%d2
    2004:	2a2e 000c      	movel %fp@(12),%d5
    2008:	2f05           	movel %d5,%sp@-
    200a:	45f9 0000 1be0 	lea 1be0 <strlen>,%a2
    2010:	4e92           	jsr %a2@
    2012:	2800           	movel %d0,%d4
    2014:	588f           	addql #4,%sp
    2016:	672a           	beqs 2042 <strstr+0x4a>
    2018:	2f02           	movel %d2,%sp@-
    201a:	4e92           	jsr %a2@
    201c:	2600           	movel %d0,%d3
    201e:	588f           	addql #4,%sp
    2020:	45f9 0000 25f4 	lea 25f4 <memcmp>,%a2
    2026:	6014           	bras 203c <strstr+0x44>
    2028:	2f04           	movel %d4,%sp@-
    202a:	2f05           	movel %d5,%sp@-
    202c:	2f02           	movel %d2,%sp@-
    202e:	4e92           	jsr %a2@
    2030:	4fef 000c      	lea %sp@(12),%sp
    2034:	4a80           	tstl %d0
    2036:	670a           	beqs 2042 <strstr+0x4a>
    2038:	5383           	subql #1,%d3
    203a:	5282           	addql #1,%d2
    203c:	b883           	cmpl %d3,%d4
    203e:	6fe8           	bles 2028 <strstr+0x30>
    2040:	4282           	clrl %d2
    2042:	2002           	movel %d2,%d0
    2044:	4cee 043c ffec 	moveml %fp@(-20),%d2-%d5/%a2
    204a:	4e5e           	unlk %fp
    204c:	4e75           	rts
	...

00002050 <number>:
    2050:	4e56 ffbc      	linkw %fp,#-68
    2054:	48e7 3f3c      	moveml %d2-%d7/%a2-%a5,%sp@-
    2058:	206e 0008      	moveal %fp@(8),%a0
    205c:	262e 000c      	movel %fp@(12),%d3
    2060:	282e 0010      	movel %fp@(16),%d4
    2064:	222e 0014      	movel %fp@(20),%d1
    2068:	266e 0018      	moveal %fp@(24),%a3
    206c:	202e 001c      	movel %fp@(28),%d0
    2070:	45f9 0000 71c3 	lea 71c3 <__FUNCTION__.884+0x33>,%a2
    2076:	0800 0006      	btst #6,%d0
    207a:	6706           	beqs 2082 <number+0x32>
    207c:	45f9 0000 71e8 	lea 71e8 <__FUNCTION__.884+0x58>,%a2
    2082:	0800 0004      	btst #4,%d0
    2086:	6704           	beqs 208c <number+0x3c>
    2088:	74fe           	moveq #-2,%d2
    208a:	c082           	andl %d2,%d0
    208c:	2404           	movel %d4,%d2
    208e:	5582           	subql #2,%d2
    2090:	7a22           	moveq #34,%d5
    2092:	ba82           	cmpl %d2,%d5
    2094:	6500 0136      	bcsw 21cc <number+0x17c>
    2098:	0800 0000      	btst #0,%d0
    209c:	6704           	beqs 20a2 <number+0x52>
    209e:	7c30           	moveq #48,%d6
    20a0:	6002           	bras 20a4 <number+0x54>
    20a2:	7c20           	moveq #32,%d6
    20a4:	0800 0001      	btst #1,%d0
    20a8:	6720           	beqs 20ca <number+0x7a>
    20aa:	4a83           	tstl %d3
    20ac:	6c08           	bges 20b6 <number+0x66>
    20ae:	4483           	negl %d3
    20b0:	5381           	subql #1,%d1
    20b2:	7a2d           	moveq #45,%d5
    20b4:	6016           	bras 20cc <number+0x7c>
    20b6:	44c0           	movew %d0,%ccr
    20b8:	6606           	bnes 20c0 <number+0x70>
    20ba:	5381           	subql #1,%d1
    20bc:	7a2b           	moveq #43,%d5
    20be:	600c           	bras 20cc <number+0x7c>
    20c0:	44c0           	movew %d0,%ccr
    20c2:	6a06           	bpls 20ca <number+0x7a>
    20c4:	5381           	subql #1,%d1
    20c6:	7a20           	moveq #32,%d5
    20c8:	6002           	bras 20cc <number+0x7c>
    20ca:	4205           	clrb %d5
    20cc:	7e20           	moveq #32,%d7
    20ce:	ce80           	andl %d0,%d7
    20d0:	2a47           	moveal %d7,%a5
    20d2:	6712           	beqs 20e6 <number+0x96>
    20d4:	7410           	moveq #16,%d2
    20d6:	b484           	cmpl %d4,%d2
    20d8:	6604           	bnes 20de <number+0x8e>
    20da:	5581           	subql #2,%d1
    20dc:	6008           	bras 20e6 <number+0x96>
    20de:	7e08           	moveq #8,%d7
    20e0:	be84           	cmpl %d4,%d7
    20e2:	6602           	bnes 20e6 <number+0x96>
    20e4:	5381           	subql #1,%d1
    20e6:	4a83           	tstl %d3
    20e8:	660a           	bnes 20f4 <number+0xa4>
    20ea:	1d7c 0030 ffbe 	moveb #48,%fp@(-66)
    20f0:	7401           	moveq #1,%d2
    20f2:	6014           	bras 2108 <number+0xb8>
    20f4:	43ee ffbe      	lea %fp@(-66),%a1
    20f8:	4282           	clrl %d2
    20fa:	4c44 3007      	divull %d4,%d7,%d3
    20fe:	12f2 7800      	moveb %a2@(0000000000000000,%d7:l),%a1@+
    2102:	5282           	addql #1,%d2
    2104:	4a83           	tstl %d3
    2106:	66f2           	bnes 20fa <number+0xaa>
    2108:	2242           	moveal %d2,%a1
    210a:	b7c2           	cmpal %d2,%a3
    210c:	6f02           	bles 2110 <number+0xc0>
    210e:	224b           	moveal %a3,%a1
    2110:	9289           	subl %a1,%d1
    2112:	7611           	moveq #17,%d3
    2114:	c680           	andl %d0,%d3
    2116:	6620           	bnes 2138 <number+0xe8>
    2118:	2601           	movel %d1,%d3
    211a:	2648           	moveal %a0,%a3
    211c:	6006           	bras 2124 <number+0xd4>
    211e:	16fc 0020      	moveb #32,%a3@+
    2122:	5383           	subql #1,%d3
    2124:	4a83           	tstl %d3
    2126:	6ef6           	bgts 211e <number+0xce>
    2128:	2601           	movel %d1,%d3
    212a:	4683           	notl %d3
    212c:	d683           	addl %d3,%d3
    212e:	9783           	subxl %d3,%d3
    2130:	c681           	andl %d1,%d3
    2132:	d1c3           	addal %d3,%a0
    2134:	5381           	subql #1,%d1
    2136:	9283           	subl %d3,%d1
    2138:	4a05           	tstb %d5
    213a:	6702           	beqs 213e <number+0xee>
    213c:	10c5           	moveb %d5,%a0@+
    213e:	4a8d           	tstl %a5
    2140:	671e           	beqs 2160 <number+0x110>
    2142:	7608           	moveq #8,%d3
    2144:	b684           	cmpl %d4,%d3
    2146:	6606           	bnes 214e <number+0xfe>
    2148:	10fc 0030      	moveb #48,%a0@+
    214c:	6012           	bras 2160 <number+0x110>
    214e:	7a10           	moveq #16,%d5
    2150:	ba84           	cmpl %d4,%d5
    2152:	660c           	bnes 2160 <number+0x110>
    2154:	10bc 0030      	moveb #48,%a0@
    2158:	116a 0021 0001 	moveb %a2@(33),%a0@(1)
    215e:	5488           	addql #2,%a0
    2160:	0800 0004      	btst #4,%d0
    2164:	661e           	bnes 2184 <number+0x134>
    2166:	2001           	movel %d1,%d0
    2168:	2448           	moveal %a0,%a2
    216a:	6004           	bras 2170 <number+0x120>
    216c:	14c6           	moveb %d6,%a2@+
    216e:	5380           	subql #1,%d0
    2170:	4a80           	tstl %d0
    2172:	6ef8           	bgts 216c <number+0x11c>
    2174:	2001           	movel %d1,%d0
    2176:	4680           	notl %d0
    2178:	d080           	addl %d0,%d0
    217a:	9180           	subxl %d0,%d0
    217c:	c081           	andl %d1,%d0
    217e:	d1c0           	addal %d0,%a0
    2180:	5381           	subql #1,%d1
    2182:	9280           	subl %d0,%d1
    2184:	2009           	movel %a1,%d0
    2186:	6006           	bras 218e <number+0x13e>
    2188:	10fc 0030      	moveb #48,%a0@+
    218c:	5380           	subql #1,%d0
    218e:	b082           	cmpl %d2,%d0
    2190:	6ef6           	bgts 2188 <number+0x138>
    2192:	2248           	moveal %a0,%a1
    2194:	2002           	movel %d2,%d0
    2196:	5380           	subql #1,%d0
    2198:	10f6 08be      	moveb %fp@(ffffffffffffffbe,%d0:l),%a0@+
    219c:	4a80           	tstl %d0
    219e:	6ef6           	bgts 2196 <number+0x146>
    21a0:	2602           	movel %d2,%d3
    21a2:	4683           	notl %d3
    21a4:	d683           	addl %d3,%d3
    21a6:	9783           	subxl %d3,%d3
    21a8:	c483           	andl %d3,%d2
    21aa:	d489           	addl %a1,%d2
    21ac:	2041           	moveal %d1,%a0
    21ae:	2242           	moveal %d2,%a1
    21b0:	6006           	bras 21b8 <number+0x168>
    21b2:	12fc 0020      	moveb #32,%a1@+
    21b6:	5388           	subql #1,%a0
    21b8:	4a88           	tstl %a0
    21ba:	6ef6           	bgts 21b2 <number+0x162>
    21bc:	2601           	movel %d1,%d3
    21be:	4683           	notl %d3
    21c0:	d683           	addl %d3,%d3
    21c2:	9783           	subxl %d3,%d3
    21c4:	c283           	andl %d3,%d1
    21c6:	2002           	movel %d2,%d0
    21c8:	d081           	addl %d1,%d0
    21ca:	6002           	bras 21ce <number+0x17e>
    21cc:	4280           	clrl %d0
    21ce:	4cdf 3cfc      	moveml %sp@+,%d2-%d7/%a2-%a5
    21d2:	4e5e           	unlk %fp
    21d4:	4e75           	rts

000021d6 <simple_strtoul>:
    21d6:	4e56 0000      	linkw %fp,#0
    21da:	48e7 3820      	moveml %d2-%d4/%a2,%sp@-
    21de:	206e 0008      	moveal %fp@(8),%a0
    21e2:	246e 000c      	moveal %fp@(12),%a2
    21e6:	222e 0010      	movel %fp@(16),%d1
    21ea:	663a           	bnes 2226 <simple_strtoul+0x50>
    21ec:	0c10 0030      	cmpib #48,%a0@
    21f0:	662c           	bnes 221e <simple_strtoul+0x48>
    21f2:	43e8 0001      	lea %a0@(1),%a1
    21f6:	0c28 0078 0001 	cmpib #120,%a0@(1)
    21fc:	6624           	bnes 2222 <simple_strtoul+0x4c>
    21fe:	1028 0002      	moveb %a0@(2),%d0
    2202:	49c0           	extbl %d0
    2204:	1030 09b0 ff00 	moveb @(ffffffffff0010f1,%d0:l),%d0
    220a:	10f1 
    220c:	49c0           	extbl %d0
    220e:	123c 0044      	moveb #68,%d1
    2212:	c081           	andl %d1,%d0
    2214:	670c           	beqs 2222 <simple_strtoul+0x4c>
    2216:	5488           	addql #2,%a0
    2218:	123c 0010      	moveb #16,%d1
    221c:	6008           	bras 2226 <simple_strtoul+0x50>
    221e:	720a           	moveq #10,%d1
    2220:	6004           	bras 2226 <simple_strtoul+0x50>
    2222:	2049           	moveal %a1,%a0
    2224:	7208           	moveq #8,%d1
    2226:	4280           	clrl %d0
    2228:	6006           	bras 2230 <simple_strtoul+0x5a>
    222a:	4c01 0800      	mulsl %d1,%d0
    222e:	d089           	addl %a1,%d0
    2230:	2608           	movel %a0,%d3
    2232:	1418           	moveb %a0@+,%d2
    2234:	49c2           	extbl %d2
    2236:	2242           	moveal %d2,%a1
    2238:	1431 0170 ff00 	moveb %a1@(ffffffffff0010f1),%d2
    223e:	10f1 
    2240:	49c2           	extbl %d2
    2242:	7844           	moveq #68,%d4
    2244:	c882           	andl %d2,%d4
    2246:	671e           	beqs 2266 <simple_strtoul+0x90>
    2248:	44c2           	movew %d2,%ccr
    224a:	6606           	bnes 2252 <simple_strtoul+0x7c>
    224c:	43e9 ffd0      	lea %a1@(-48),%a1
    2250:	6010           	bras 2262 <simple_strtoul+0x8c>
    2252:	0802 0001      	btst #1,%d2
    2256:	6706           	beqs 225e <simple_strtoul+0x88>
    2258:	43e9 ffa9      	lea %a1@(-87),%a1
    225c:	6004           	bras 2262 <simple_strtoul+0x8c>
    225e:	43e9 ffc9      	lea %a1@(-55),%a1
    2262:	b289           	cmpl %a1,%d1
    2264:	62c4           	bhis 222a <simple_strtoul+0x54>
    2266:	4a8a           	tstl %a2
    2268:	6702           	beqs 226c <simple_strtoul+0x96>
    226a:	2483           	movel %d3,%a2@
    226c:	4cdf 041c      	moveml %sp@+,%d2-%d4/%a2
    2270:	4e5e           	unlk %fp
    2272:	4e75           	rts

00002274 <vsprintf>:
    2274:	4e56 0000      	linkw %fp,#0
    2278:	48e7 3f3c      	moveml %d2-%d7/%a2-%a5,%sp@-
    227c:	282e 0008      	movel %fp@(8),%d4
    2280:	206e 000c      	moveal %fp@(12),%a0
    2284:	246e 0010      	moveal %fp@(16),%a2
    2288:	2644           	moveal %d4,%a3
    228a:	4bfa fdc4      	lea %pc@(2050 <number>),%a5
    228e:	2a3c 0000 1e6e 	movel #7790,%d5
    2294:	6000 02d6      	braw 256c <vsprintf+0x2f8>
    2298:	0c00 0025      	cmpib #37,%d0
    229c:	670c           	beqs 22aa <vsprintf+0x36>
    229e:	16c0           	moveb %d0,%a3@+
    22a0:	2848           	moveal %a0,%a4
    22a2:	6000 02c4      	braw 2568 <vsprintf+0x2f4>
    22a6:	204c           	moveal %a4,%a0
    22a8:	6002           	bras 22ac <vsprintf+0x38>
    22aa:	4282           	clrl %d2
    22ac:	49e8 0001      	lea %a0@(1),%a4
    22b0:	1014           	moveb %a4@,%d0
    22b2:	0c00 002b      	cmpib #43,%d0
    22b6:	6722           	beqs 22da <vsprintf+0x66>
    22b8:	6e0e           	bgts 22c8 <vsprintf+0x54>
    22ba:	0c00 0020      	cmpib #32,%d0
    22be:	671e           	beqs 22de <vsprintf+0x6a>
    22c0:	0c00 0023      	cmpib #35,%d0
    22c4:	6628           	bnes 22ee <vsprintf+0x7a>
    22c6:	601c           	bras 22e4 <vsprintf+0x70>
    22c8:	0c00 002d      	cmpib #45,%d0
    22cc:	6708           	beqs 22d6 <vsprintf+0x62>
    22ce:	0c00 0030      	cmpib #48,%d0
    22d2:	661a           	bnes 22ee <vsprintf+0x7a>
    22d4:	6014           	bras 22ea <vsprintf+0x76>
    22d6:	7010           	moveq #16,%d0
    22d8:	6006           	bras 22e0 <vsprintf+0x6c>
    22da:	7e04           	moveq #4,%d7
    22dc:	6008           	bras 22e6 <vsprintf+0x72>
    22de:	7008           	moveq #8,%d0
    22e0:	8480           	orl %d0,%d2
    22e2:	60c2           	bras 22a6 <vsprintf+0x32>
    22e4:	7e20           	moveq #32,%d7
    22e6:	8487           	orl %d7,%d2
    22e8:	60bc           	bras 22a6 <vsprintf+0x32>
    22ea:	7001           	moveq #1,%d0
    22ec:	60f2           	bras 22e0 <vsprintf+0x6c>
    22ee:	1200           	moveb %d0,%d1
    22f0:	0601 ffd0      	addib #-48,%d1
    22f4:	0c01 0009      	cmpib #9,%d1
    22f8:	622a           	bhis 2324 <vsprintf+0xb0>
    22fa:	204c           	moveal %a4,%a0
    22fc:	4283           	clrl %d3
    22fe:	6012           	bras 2312 <vsprintf+0x9e>
    2300:	2203           	movel %d3,%d1
    2302:	d281           	addl %d1,%d1
    2304:	e78b           	lsll #3,%d3
    2306:	2241           	moveal %d1,%a1
    2308:	d3c3           	addal %d3,%a1
    230a:	49c0           	extbl %d0
    230c:	43f1 08d0      	lea %a1@(ffffffffffffffd0,%d0:l),%a1
    2310:	2609           	movel %a1,%d3
    2312:	2848           	moveal %a0,%a4
    2314:	1018           	moveb %a0@+,%d0
    2316:	1200           	moveb %d0,%d1
    2318:	0601 ffd0      	addib #-48,%d1
    231c:	0c01 0009      	cmpib #9,%d1
    2320:	63de           	blss 2300 <vsprintf+0x8c>
    2322:	6020           	bras 2344 <vsprintf+0xd0>
    2324:	0c00 002a      	cmpib #42,%d0
    2328:	6614           	bnes 233e <vsprintf+0xca>
    232a:	49e8 0002      	lea %a0@(2),%a4
    232e:	41ea 0004      	lea %a2@(4),%a0
    2332:	2612           	movel %a2@,%d3
    2334:	6c0c           	bges 2342 <vsprintf+0xce>
    2336:	4483           	negl %d3
    2338:	7e10           	moveq #16,%d7
    233a:	8487           	orl %d7,%d2
    233c:	6004           	bras 2342 <vsprintf+0xce>
    233e:	76ff           	moveq #-1,%d3
    2340:	6002           	bras 2344 <vsprintf+0xd0>
    2342:	2448           	moveal %a0,%a2
    2344:	0c14 002e      	cmpib #46,%a4@
    2348:	6650           	bnes 239a <vsprintf+0x126>
    234a:	41ec 0001      	lea %a4@(1),%a0
    234e:	102c 0001      	moveb %a4@(1),%d0
    2352:	1200           	moveb %d0,%d1
    2354:	0601 ffd0      	addib #-48,%d1
    2358:	0c01 0009      	cmpib #9,%d1
    235c:	6228           	bhis 2386 <vsprintf+0x112>
    235e:	4281           	clrl %d1
    2360:	6012           	bras 2374 <vsprintf+0x100>
    2362:	2c01           	movel %d1,%d6
    2364:	dc86           	addl %d6,%d6
    2366:	e789           	lsll #3,%d1
    2368:	2246           	moveal %d6,%a1
    236a:	d3c1           	addal %d1,%a1
    236c:	49c0           	extbl %d0
    236e:	43f1 08d0      	lea %a1@(ffffffffffffffd0,%d0:l),%a1
    2372:	2209           	movel %a1,%d1
    2374:	2848           	moveal %a0,%a4
    2376:	1018           	moveb %a0@+,%d0
    2378:	1c00           	moveb %d0,%d6
    237a:	0606 ffd0      	addib #-48,%d6
    237e:	0c06 0009      	cmpib #9,%d6
    2382:	63de           	blss 2362 <vsprintf+0xee>
    2384:	601c           	bras 23a2 <vsprintf+0x12e>
    2386:	0c00 002a      	cmpib #42,%d0
    238a:	6612           	bnes 239e <vsprintf+0x12a>
    238c:	548c           	addql #2,%a4
    238e:	41ea 0004      	lea %a2@(4),%a0
    2392:	2212           	movel %a2@,%d1
    2394:	2448           	moveal %a0,%a2
    2396:	6c0a           	bges 23a2 <vsprintf+0x12e>
    2398:	6006           	bras 23a0 <vsprintf+0x12c>
    239a:	72ff           	moveq #-1,%d1
    239c:	6004           	bras 23a2 <vsprintf+0x12e>
    239e:	2848           	moveal %a0,%a4
    23a0:	4281           	clrl %d1
    23a2:	1c14           	moveb %a4@,%d6
    23a4:	0c06 0068      	cmpib #104,%d6
    23a8:	670c           	beqs 23b6 <vsprintf+0x142>
    23aa:	0c06 006c      	cmpib #108,%d6
    23ae:	6706           	beqs 23b6 <vsprintf+0x142>
    23b0:	0c06 004c      	cmpib #76,%d6
    23b4:	6606           	bnes 23bc <vsprintf+0x148>
    23b6:	49c6           	extbl %d6
    23b8:	528c           	addql #1,%a4
    23ba:	6002           	bras 23be <vsprintf+0x14a>
    23bc:	7cff           	moveq #-1,%d6
    23be:	1014           	moveb %a4@,%d0
    23c0:	0c00 006e      	cmpib #110,%d0
    23c4:	6700 010a      	beqw 24d0 <vsprintf+0x25c>
    23c8:	6e28           	bgts 23f2 <vsprintf+0x17e>
    23ca:	0c00 0063      	cmpib #99,%d0
    23ce:	6752           	beqs 2422 <vsprintf+0x1ae>
    23d0:	6e0c           	bgts 23de <vsprintf+0x16a>
    23d2:	0c00 0058      	cmpib #88,%d0
    23d6:	6600 012a      	bnew 2502 <vsprintf+0x28e>
    23da:	6000 011a      	braw 24f6 <vsprintf+0x282>
    23de:	0c00 0064      	cmpib #100,%d0
    23e2:	6700 0118      	beqw 24fc <vsprintf+0x288>
    23e6:	0c00 0069      	cmpib #105,%d0
    23ea:	6600 0116      	bnew 2502 <vsprintf+0x28e>
    23ee:	6000 010c      	braw 24fc <vsprintf+0x288>
    23f2:	0c00 0073      	cmpib #115,%d0
    23f6:	6754           	beqs 244c <vsprintf+0x1d8>
    23f8:	6e14           	bgts 240e <vsprintf+0x19a>
    23fa:	0c00 006f      	cmpib #111,%d0
    23fe:	6700 00f0      	beqw 24f0 <vsprintf+0x27c>
    2402:	0c00 0070      	cmpib #112,%d0
    2406:	6600 00fa      	bnew 2502 <vsprintf+0x28e>
    240a:	6000 0098      	braw 24a4 <vsprintf+0x230>
    240e:	0c00 0075      	cmpib #117,%d0
    2412:	6700 0104      	beqw 2518 <vsprintf+0x2a4>
    2416:	0c00 0078      	cmpib #120,%d0
    241a:	6600 00e6      	bnew 2502 <vsprintf+0x28e>
    241e:	6000 00fe      	braw 251e <vsprintf+0x2aa>
    2422:	0802 0004      	btst #4,%d2
    2426:	660c           	bnes 2434 <vsprintf+0x1c0>
    2428:	6004           	bras 242e <vsprintf+0x1ba>
    242a:	16fc 0020      	moveb #32,%a3@+
    242e:	5383           	subql #1,%d3
    2430:	4a83           	tstl %d3
    2432:	6ef6           	bgts 242a <vsprintf+0x1b6>
    2434:	41ea 0004      	lea %a2@(4),%a0
    2438:	16ea 0003      	moveb %a2@(3),%a3@+
    243c:	6004           	bras 2442 <vsprintf+0x1ce>
    243e:	16fc 0020      	moveb #32,%a3@+
    2442:	5383           	subql #1,%d3
    2444:	4a83           	tstl %d3
    2446:	6ef6           	bgts 243e <vsprintf+0x1ca>
    2448:	6000 0098      	braw 24e2 <vsprintf+0x26e>
    244c:	2c0a           	movel %a2,%d6
    244e:	5886           	addql #4,%d6
    2450:	2452           	moveal %a2@,%a2
    2452:	4a8a           	tstl %a2
    2454:	6606           	bnes 245c <vsprintf+0x1e8>
    2456:	45f9 0000 720d 	lea 720d <__FUNCTION__.884+0x7d>,%a2
    245c:	2f01           	movel %d1,%sp@-
    245e:	2f0a           	movel %a2,%sp@-
    2460:	2045           	moveal %d5,%a0
    2462:	4e90           	jsr %a0@
    2464:	508f           	addql #8,%sp
    2466:	0802 0004      	btst #4,%d2
    246a:	6610           	bnes 247c <vsprintf+0x208>
    246c:	6004           	bras 2472 <vsprintf+0x1fe>
    246e:	16fc 0020      	moveb #32,%a3@+
    2472:	5383           	subql #1,%d3
    2474:	2203           	movel %d3,%d1
    2476:	5281           	addql #1,%d1
    2478:	b280           	cmpl %d0,%d1
    247a:	6ef2           	bgts 246e <vsprintf+0x1fa>
    247c:	204b           	moveal %a3,%a0
    247e:	4281           	clrl %d1
    2480:	6004           	bras 2486 <vsprintf+0x212>
    2482:	10da           	moveb %a2@+,%a0@+
    2484:	5281           	addql #1,%d1
    2486:	b081           	cmpl %d1,%d0
    2488:	6ef8           	bgts 2482 <vsprintf+0x20e>
    248a:	2200           	movel %d0,%d1
    248c:	4681           	notl %d1
    248e:	d281           	addl %d1,%d1
    2490:	9381           	subxl %d1,%d1
    2492:	c280           	andl %d0,%d1
    2494:	d7c1           	addal %d1,%a3
    2496:	6006           	bras 249e <vsprintf+0x22a>
    2498:	16fc 0020      	moveb #32,%a3@+
    249c:	5383           	subql #1,%d3
    249e:	b680           	cmpl %d0,%d3
    24a0:	6ef6           	bgts 2498 <vsprintf+0x224>
    24a2:	6026           	bras 24ca <vsprintf+0x256>
    24a4:	70ff           	moveq #-1,%d0
    24a6:	b083           	cmpl %d3,%d0
    24a8:	6606           	bnes 24b0 <vsprintf+0x23c>
    24aa:	7e01           	moveq #1,%d7
    24ac:	8487           	orl %d7,%d2
    24ae:	7608           	moveq #8,%d3
    24b0:	2c0a           	movel %a2,%d6
    24b2:	5886           	addql #4,%d6
    24b4:	2f02           	movel %d2,%sp@-
    24b6:	2f01           	movel %d1,%sp@-
    24b8:	2f03           	movel %d3,%sp@-
    24ba:	4878 0010      	pea 10 <Stack>
    24be:	2f12           	movel %a2@,%sp@-
    24c0:	2f0b           	movel %a3,%sp@-
    24c2:	4e95           	jsr %a5@
    24c4:	2640           	moveal %d0,%a3
    24c6:	4fef 0018      	lea %sp@(24),%sp
    24ca:	2446           	moveal %d6,%a2
    24cc:	6000 009a      	braw 2568 <vsprintf+0x2f4>
    24d0:	41ea 0004      	lea %a2@(4),%a0
    24d4:	706c           	moveq #108,%d0
    24d6:	2252           	moveal %a2@,%a1
    24d8:	b086           	cmpl %d6,%d0
    24da:	660c           	bnes 24e8 <vsprintf+0x274>
    24dc:	2e0b           	movel %a3,%d7
    24de:	9e84           	subl %d4,%d7
    24e0:	2287           	movel %d7,%a1@
    24e2:	2448           	moveal %a0,%a2
    24e4:	6000 0082      	braw 2568 <vsprintf+0x2f4>
    24e8:	200b           	movel %a3,%d0
    24ea:	9084           	subl %d4,%d0
    24ec:	2280           	movel %d0,%a1@
    24ee:	60f2           	bras 24e2 <vsprintf+0x26e>
    24f0:	307c 0008      	moveaw #8,%a0
    24f4:	602c           	bras 2522 <vsprintf+0x2ae>
    24f6:	7e40           	moveq #64,%d7
    24f8:	8487           	orl %d7,%d2
    24fa:	6022           	bras 251e <vsprintf+0x2aa>
    24fc:	7002           	moveq #2,%d0
    24fe:	8480           	orl %d0,%d2
    2500:	6016           	bras 2518 <vsprintf+0x2a4>
    2502:	0c00 0025      	cmpib #37,%d0
    2506:	6704           	beqs 250c <vsprintf+0x298>
    2508:	16fc 0025      	moveb #37,%a3@+
    250c:	1014           	moveb %a4@,%d0
    250e:	6704           	beqs 2514 <vsprintf+0x2a0>
    2510:	16c0           	moveb %d0,%a3@+
    2512:	6054           	bras 2568 <vsprintf+0x2f4>
    2514:	538c           	subql #1,%a4
    2516:	6050           	bras 2568 <vsprintf+0x2f4>
    2518:	307c 000a      	moveaw #10,%a0
    251c:	6004           	bras 2522 <vsprintf+0x2ae>
    251e:	307c 0010      	moveaw #16,%a0
    2522:	7e6c           	moveq #108,%d7
    2524:	be86           	cmpl %d6,%d7
    2526:	6606           	bnes 252e <vsprintf+0x2ba>
    2528:	2012           	movel %a2@,%d0
    252a:	588a           	addql #4,%a2
    252c:	6026           	bras 2554 <vsprintf+0x2e0>
    252e:	7002           	moveq #2,%d0
    2530:	c082           	andl %d2,%d0
    2532:	7e68           	moveq #104,%d7
    2534:	be86           	cmpl %d6,%d7
    2536:	6614           	bnes 254c <vsprintf+0x2d8>
    2538:	43ea 0002      	lea %a2@(2),%a1
    253c:	4a80           	tstl %d0
    253e:	6706           	beqs 2546 <vsprintf+0x2d2>
    2540:	3012           	movew %a2@,%d0
    2542:	48c0           	extl %d0
    2544:	600c           	bras 2552 <vsprintf+0x2de>
    2546:	4280           	clrl %d0
    2548:	3012           	movew %a2@,%d0
    254a:	6006           	bras 2552 <vsprintf+0x2de>
    254c:	43ea 0004      	lea %a2@(4),%a1
    2550:	2012           	movel %a2@,%d0
    2552:	2449           	moveal %a1,%a2
    2554:	2f02           	movel %d2,%sp@-
    2556:	2f01           	movel %d1,%sp@-
    2558:	2f03           	movel %d3,%sp@-
    255a:	2f08           	movel %a0,%sp@-
    255c:	2f00           	movel %d0,%sp@-
    255e:	2f0b           	movel %a3,%sp@-
    2560:	4e95           	jsr %a5@
    2562:	2640           	moveal %d0,%a3
    2564:	4fef 0018      	lea %sp@(24),%sp
    2568:	41ec 0001      	lea %a4@(1),%a0
    256c:	1010           	moveb %a0@,%d0
    256e:	6600 fd28      	bnew 2298 <vsprintf+0x24>
    2572:	4213           	clrb %a3@
    2574:	200b           	movel %a3,%d0
    2576:	9084           	subl %d4,%d0
    2578:	4cee 3cfc ffd8 	moveml %fp@(-40),%d2-%d7/%a2-%a5
    257e:	4e5e           	unlk %fp
    2580:	4e75           	rts

00002582 <sprintf>:
    2582:	4e56 0000      	linkw %fp,#0
    2586:	486e 0010      	pea %fp@(16)
    258a:	2f2e 000c      	movel %fp@(12),%sp@-
    258e:	2f2e 0008      	movel %fp@(8),%sp@-
    2592:	4eba fce0      	jsr %pc@(2274 <vsprintf>)
    2596:	4e5e           	unlk %fp
    2598:	4e75           	rts
	...

0000259c <memchr>:
    259c:	4e56 0000      	linkw %fp,#0
    25a0:	2f0a           	movel %a2,%sp@-
    25a2:	2f02           	movel %d2,%sp@-
    25a4:	202e 0008      	movel %fp@(8),%d0
    25a8:	206e 000c      	moveal %fp@(12),%a0
    25ac:	222e 0010      	movel %fp@(16),%d1
    25b0:	6010           	bras 25c2 <memchr+0x26>
    25b2:	2240           	moveal %d0,%a1
    25b4:	5289           	addql #1,%a1
    25b6:	2440           	moveal %d0,%a2
    25b8:	1412           	moveb %a2@,%d2
    25ba:	49c2           	extbl %d2
    25bc:	b1c2           	cmpal %d2,%a0
    25be:	6708           	beqs 25c8 <memchr+0x2c>
    25c0:	2009           	movel %a1,%d0
    25c2:	5381           	subql #1,%d1
    25c4:	6aec           	bpls 25b2 <memchr+0x16>
    25c6:	4280           	clrl %d0
    25c8:	241f           	movel %sp@+,%d2
    25ca:	245f           	moveal %sp@+,%a2
    25cc:	4e5e           	unlk %fp
    25ce:	4e75           	rts

000025d0 <memcpy>:
    25d0:	4e56 0000      	linkw %fp,#0
    25d4:	202e 0008      	movel %fp@(8),%d0
    25d8:	222e 0010      	movel %fp@(16),%d1
    25dc:	226e 000c      	moveal %fp@(12),%a1
    25e0:	2040           	moveal %d0,%a0
    25e2:	6002           	bras 25e6 <memcpy+0x16>
    25e4:	10d9           	moveb %a1@+,%a0@+
    25e6:	51c9 fffc      	dbf %d1,25e4 <memcpy+0x14>
    25ea:	4241           	clrw %d1
    25ec:	5381           	subql #1,%d1
    25ee:	64f4           	bccs 25e4 <memcpy+0x14>
    25f0:	4e5e           	unlk %fp
    25f2:	4e75           	rts

000025f4 <memcmp>:
    25f4:	4e56 0000      	linkw %fp,#0
    25f8:	2f02           	movel %d2,%sp@-
    25fa:	202e 0010      	movel %fp@(16),%d0
    25fe:	226e 0008      	moveal %fp@(8),%a1
    2602:	206e 000c      	moveal %fp@(12),%a0
    2606:	6014           	bras 261c <memcmp+0x28>
    2608:	1419           	moveb %a1@+,%d2
    260a:	1218           	moveb %a0@+,%d1
    260c:	b202           	cmpb %d2,%d1
    260e:	670a           	beqs 261a <memcmp+0x26>
    2610:	52c0           	shi %d0
    2612:	49c0           	extbl %d0
    2614:	7201           	moveq #1,%d1
    2616:	8081           	orl %d1,%d0
    2618:	6006           	bras 2620 <memcmp+0x2c>
    261a:	5380           	subql #1,%d0
    261c:	4a80           	tstl %d0
    261e:	66e8           	bnes 2608 <memcmp+0x14>
    2620:	241f           	movel %sp@+,%d2
    2622:	4e5e           	unlk %fp
    2624:	4e75           	rts
	...

00002628 <ide_setup>:
    2628:	4e56 0000      	linkw %fp,#0
    262c:	222e 000c      	movel %fp@(12),%d1
    2630:	13ee 0013 8000 	moveb %fp@(19),80000004 <io+0x4>
    2636:	0004 
    2638:	4e71           	nop
    263a:	13c1 8000 0006 	moveb %d1,80000006 <io+0x6>
    2640:	4e71           	nop
    2642:	e089           	lsrl #8,%d1
    2644:	13c1 8000 0008 	moveb %d1,80000008 <io+0x8>
    264a:	4e71           	nop
    264c:	e089           	lsrl #8,%d1
    264e:	13c1 8000 000a 	moveb %d1,8000000a <io+0xa>
    2654:	4e71           	nop
    2656:	102e 000b      	moveb %fp@(11),%d0
    265a:	0200 0001      	andib #1,%d0
    265e:	e908           	lslb #4,%d0
    2660:	0000 0040      	orib #64,%d0
    2664:	e9c1 1504      	bfextu %d1,20,4,%d1
    2668:	8001           	orb %d1,%d0
    266a:	13c0 8000 000c 	moveb %d0,8000000c <io+0xc>
    2670:	4e71           	nop
    2672:	4e5e           	unlk %fp
    2674:	4e75           	rts

00002676 <ide_setmulti>:
    2676:	4e56 0000      	linkw %fp,#0
    267a:	203c 000d bba0 	movel #900000,%d0
    2680:	6004           	bras 2686 <ide_setmulti+0x10>
    2682:	5380           	subql #1,%d0
    2684:	670a           	beqs 2690 <ide_setmulti+0x1a>
    2686:	1239 8000 000e 	moveb 8000000e <io+0xe>,%d1
    268c:	6df4           	blts 2682 <ide_setmulti+0xc>
    268e:	6022           	bras 26b2 <ide_setmulti+0x3c>
    2690:	1039 8000 000e 	moveb 8000000e <io+0xe>,%d0
    2696:	0280 0000 00ff 	andil #255,%d0
    269c:	2f00           	movel %d0,%sp@-
    269e:	4878 0020      	pea 20 <chuser>
    26a2:	4879 0000 7214 	pea 7214 <__FUNCTION__.884+0x84>
    26a8:	4eb9 0000 169c 	jsr 169c <printf>
    26ae:	70ff           	moveq #-1,%d0
    26b0:	6020           	bras 26d2 <ide_setmulti+0x5c>
    26b2:	13ee 000f 8000 	moveb %fp@(15),80000004 <io+0x4>
    26b8:	0004 
    26ba:	202e 0008      	movel %fp@(8),%d0
    26be:	e988           	lsll #4,%d0
    26c0:	0000 ffe0      	orib #-32,%d0
    26c4:	13c0 8000 000c 	moveb %d0,8000000c <io+0xc>
    26ca:	13fc ffc6 8000 	moveb #-58,8000000e <io+0xe>
    26d0:	000e 
    26d2:	4e5e           	unlk %fp
    26d4:	4e75           	rts

000026d6 <ide_init>:
    26d6:	4e56 0000      	linkw %fp,#0
    26da:	1039 8000 000e 	moveb 8000000e <io+0xe>,%d0
    26e0:	6df8           	blts 26da <ide_init+0x4>
    26e2:	42a7           	clrl %sp@-
    26e4:	42a7           	clrl %sp@-
    26e6:	2f2e 0008      	movel %fp@(8),%sp@-
    26ea:	4eba ff3c      	jsr %pc@(2628 <ide_setup>)
    26ee:	13fc ff90 8000 	moveb #-112,8000000e <io+0xe>
    26f4:	000e 
    26f6:	4fef 000c      	lea %sp@(12),%sp
    26fa:	1039 8000 000e 	moveb 8000000e <io+0xe>,%d0
    2700:	6df8           	blts 26fa <ide_init+0x24>
    2702:	4e5e           	unlk %fp
    2704:	4e75           	rts

00002706 <ide_readmulti>:
    2706:	4e56 0000      	linkw %fp,#0
    270a:	2f0a           	movel %a2,%sp@-
    270c:	2f02           	movel %d2,%sp@-
    270e:	246e 0010      	moveal %fp@(16),%a2
    2712:	242e 0014      	movel %fp@(20),%d2
    2716:	203c 000d bba0 	movel #900000,%d0
    271c:	6004           	bras 2722 <ide_readmulti+0x1c>
    271e:	5380           	subql #1,%d0
    2720:	670c           	beqs 272e <ide_readmulti+0x28>
    2722:	1239 8000 000e 	moveb 8000000e <io+0xe>,%d1
    2728:	6df4           	blts 271e <ide_readmulti+0x18>
    272a:	6000 00e6      	braw 2812 <ide_readmulti+0x10c>
    272e:	1039 8000 000e 	moveb 8000000e <io+0xe>,%d0
    2734:	0280 0000 00ff 	andil #255,%d0
    273a:	2f00           	movel %d0,%sp@-
    273c:	4878 0045      	pea 45 <gettpa+0x6>
    2740:	4879 0000 7233 	pea 7233 <__FUNCTION__.884+0xa3>
    2746:	4eb9 0000 169c 	jsr 169c <printf>
    274c:	4fef 000c      	lea %sp@(12),%sp
    2750:	6000 00bc      	braw 280e <ide_readmulti+0x108>
    2754:	5380           	subql #1,%d0
    2756:	6712           	beqs 276a <ide_readmulti+0x64>
    2758:	1239 8000 000e 	moveb 8000000e <io+0xe>,%d1
    275e:	44c1           	movew %d1,%ccr
    2760:	6af2           	bpls 2754 <ide_readmulti+0x4e>
    2762:	eb8a           	lsll #5,%d2
    2764:	4280           	clrl %d0
    2766:	6000 00a0      	braw 2808 <ide_readmulti+0x102>
    276a:	1039 8000 000e 	moveb 8000000e <io+0xe>,%d0
    2770:	0280 0000 00ff 	andil #255,%d0
    2776:	2f00           	movel %d0,%sp@-
    2778:	4878 0053      	pea 53 <gettpa+0x14>
    277c:	4879 0000 7233 	pea 7233 <__FUNCTION__.884+0xa3>
    2782:	45f9 0000 169c 	lea 169c <printf>,%a2
    2788:	4e92           	jsr %a2@
    278a:	1039 8000 000e 	moveb 8000000e <io+0xe>,%d0
    2790:	4fef 000c      	lea %sp@(12),%sp
    2794:	0800 0000      	btst #0,%d0
    2798:	6774           	beqs 280e <ide_readmulti+0x108>
    279a:	1039 8000 0002 	moveb 80000002 <io+0x2>,%d0
    27a0:	0280 0000 00ff 	andil #255,%d0
    27a6:	2f00           	movel %d0,%sp@-
    27a8:	4879 0000 724e 	pea 724e <__FUNCTION__.884+0xbe>
    27ae:	4e92           	jsr %a2@
    27b0:	508f           	addql #8,%sp
    27b2:	605a           	bras 280e <ide_readmulti+0x108>
    27b4:	3239 8000 0010 	movew 80000010 <io+0x10>,%d1
    27ba:	3481           	movew %d1,%a2@
    27bc:	3239 8000 0010 	movew 80000010 <io+0x10>,%d1
    27c2:	3541 0002      	movew %d1,%a2@(2)
    27c6:	3239 8000 0010 	movew 80000010 <io+0x10>,%d1
    27cc:	3541 0004      	movew %d1,%a2@(4)
    27d0:	3239 8000 0010 	movew 80000010 <io+0x10>,%d1
    27d6:	3541 0006      	movew %d1,%a2@(6)
    27da:	3239 8000 0010 	movew 80000010 <io+0x10>,%d1
    27e0:	3541 0008      	movew %d1,%a2@(8)
    27e4:	3239 8000 0010 	movew 80000010 <io+0x10>,%d1
    27ea:	3541 000a      	movew %d1,%a2@(10)
    27ee:	3239 8000 0010 	movew 80000010 <io+0x10>,%d1
    27f4:	3541 000c      	movew %d1,%a2@(12)
    27f8:	3239 8000 0010 	movew 80000010 <io+0x10>,%d1
    27fe:	3541 000e      	movew %d1,%a2@(14)
    2802:	45ea 0010      	lea %a2@(16),%a2
    2806:	5280           	addql #1,%d0
    2808:	b480           	cmpl %d0,%d2
    280a:	6ea8           	bgts 27b4 <ide_readmulti+0xae>
    280c:	6028           	bras 2836 <ide_readmulti+0x130>
    280e:	70ff           	moveq #-1,%d0
    2810:	6024           	bras 2836 <ide_readmulti+0x130>
    2812:	2f02           	movel %d2,%sp@-
    2814:	2f2e 000c      	movel %fp@(12),%sp@-
    2818:	2f2e 0008      	movel %fp@(8),%sp@-
    281c:	4eba fe0a      	jsr %pc@(2628 <ide_setup>)
    2820:	13fc ffc4 8000 	moveb #-60,8000000e <io+0xe>
    2826:	000e 
    2828:	4fef 000c      	lea %sp@(12),%sp
    282c:	203c 000d bba0 	movel #900000,%d0
    2832:	6000 ff24      	braw 2758 <ide_readmulti+0x52>
    2836:	242e fff8      	movel %fp@(-8),%d2
    283a:	246e fffc      	moveal %fp@(-4),%a2
    283e:	4e5e           	unlk %fp
    2840:	4e75           	rts

00002842 <ide_writemulti>:
    2842:	4e56 0000      	linkw %fp,#0
    2846:	2f0a           	movel %a2,%sp@-
    2848:	2f02           	movel %d2,%sp@-
    284a:	246e 0010      	moveal %fp@(16),%a2
    284e:	242e 0014      	movel %fp@(20),%d2
    2852:	203c 000d bba0 	movel #900000,%d0
    2858:	6004           	bras 285e <ide_writemulti+0x1c>
    285a:	5380           	subql #1,%d0
    285c:	670c           	beqs 286a <ide_writemulti+0x28>
    285e:	1239 8000 000e 	moveb 8000000e <io+0xe>,%d1
    2864:	6df4           	blts 285a <ide_writemulti+0x18>
    2866:	6000 00da      	braw 2942 <ide_writemulti+0x100>
    286a:	1039 8000 000e 	moveb 8000000e <io+0xe>,%d0
    2870:	0280 0000 00ff 	andil #255,%d0
    2876:	2f00           	movel %d0,%sp@-
    2878:	4878 0073      	pea 73 <gettpa+0x34>
    287c:	4879 0000 725b 	pea 725b <__FUNCTION__.884+0xcb>
    2882:	4eb9 0000 169c 	jsr 169c <printf>
    2888:	4fef 000c      	lea %sp@(12),%sp
    288c:	6000 00b0      	braw 293e <ide_writemulti+0xfc>
    2890:	5380           	subql #1,%d0
    2892:	6712           	beqs 28a6 <ide_writemulti+0x64>
    2894:	1239 8000 000e 	moveb 8000000e <io+0xe>,%d1
    289a:	44c1           	movew %d1,%ccr
    289c:	6af2           	bpls 2890 <ide_writemulti+0x4e>
    289e:	eb8a           	lsll #5,%d2
    28a0:	4280           	clrl %d0
    28a2:	6000 0094      	braw 2938 <ide_writemulti+0xf6>
    28a6:	1039 8000 000e 	moveb 8000000e <io+0xe>,%d0
    28ac:	0280 0000 00ff 	andil #255,%d0
    28b2:	2f00           	movel %d0,%sp@-
    28b4:	42a7           	clrl %sp@-
    28b6:	4878 0080      	pea 80 <secsize>
    28ba:	4879 0000 7277 	pea 7277 <__FUNCTION__.884+0xe7>
    28c0:	45f9 0000 169c 	lea 169c <printf>,%a2
    28c6:	4e92           	jsr %a2@
    28c8:	1039 8000 0002 	moveb 80000002 <io+0x2>,%d0
    28ce:	0280 0000 00ff 	andil #255,%d0
    28d4:	2f00           	movel %d0,%sp@-
    28d6:	4879 0000 7296 	pea 7296 <__FUNCTION__.884+0x106>
    28dc:	4e92           	jsr %a2@
    28de:	4fef 0018      	lea %sp@(24),%sp
    28e2:	605a           	bras 293e <ide_writemulti+0xfc>
    28e4:	3212           	movew %a2@,%d1
    28e6:	33c1 8000 0010 	movew %d1,80000010 <io+0x10>
    28ec:	322a 0002      	movew %a2@(2),%d1
    28f0:	33c1 8000 0010 	movew %d1,80000010 <io+0x10>
    28f6:	322a 0004      	movew %a2@(4),%d1
    28fa:	33c1 8000 0010 	movew %d1,80000010 <io+0x10>
    2900:	322a 0006      	movew %a2@(6),%d1
    2904:	33c1 8000 0010 	movew %d1,80000010 <io+0x10>
    290a:	322a 0008      	movew %a2@(8),%d1
    290e:	33c1 8000 0010 	movew %d1,80000010 <io+0x10>
    2914:	322a 000a      	movew %a2@(10),%d1
    2918:	33c1 8000 0010 	movew %d1,80000010 <io+0x10>
    291e:	322a 000c      	movew %a2@(12),%d1
    2922:	33c1 8000 0010 	movew %d1,80000010 <io+0x10>
    2928:	322a 000e      	movew %a2@(14),%d1
    292c:	33c1 8000 0010 	movew %d1,80000010 <io+0x10>
    2932:	45ea 0010      	lea %a2@(16),%a2
    2936:	5280           	addql #1,%d0
    2938:	b480           	cmpl %d0,%d2
    293a:	6ea8           	bgts 28e4 <ide_writemulti+0xa2>
    293c:	6028           	bras 2966 <ide_writemulti+0x124>
    293e:	70ff           	moveq #-1,%d0
    2940:	6024           	bras 2966 <ide_writemulti+0x124>
    2942:	2f02           	movel %d2,%sp@-
    2944:	2f2e 000c      	movel %fp@(12),%sp@-
    2948:	2f2e 0008      	movel %fp@(8),%sp@-
    294c:	4eba fcda      	jsr %pc@(2628 <ide_setup>)
    2950:	13fc ffc5 8000 	moveb #-59,8000000e <io+0xe>
    2956:	000e 
    2958:	4fef 000c      	lea %sp@(12),%sp
    295c:	203c 000d bba0 	movel #900000,%d0
    2962:	6000 ff30      	braw 2894 <ide_writemulti+0x52>
    2966:	242e fff8      	movel %fp@(-8),%d2
    296a:	246e fffc      	moveal %fp@(-4),%a2
    296e:	4e5e           	unlk %fp
    2970:	4e75           	rts

00002972 <ide_read>:
    2972:	4e56 0000      	linkw %fp,#0
    2976:	2f0a           	movel %a2,%sp@-
    2978:	246e 0010      	moveal %fp@(16),%a2
    297c:	1039 8000 000e 	moveb 8000000e <io+0xe>,%d0
    2982:	6df8           	blts 297c <ide_read+0xa>
    2984:	4878 0001      	pea 1 <_text_start+0x1>
    2988:	2f2e 000c      	movel %fp@(12),%sp@-
    298c:	2f2e 0008      	movel %fp@(8),%sp@-
    2990:	4eba fc96      	jsr %pc@(2628 <ide_setup>)
    2994:	13fc 0020 8000 	moveb #32,8000000e <io+0xe>
    299a:	000e 
    299c:	4fef 000c      	lea %sp@(12),%sp
    29a0:	1039 8000 000e 	moveb 8000000e <io+0xe>,%d0
    29a6:	44c0           	movew %d0,%ccr
    29a8:	6af6           	bpls 29a0 <ide_read+0x2e>
    29aa:	41ea 0200      	lea %a2@(512),%a0
    29ae:	3039 8000 0010 	movew 80000010 <io+0x10>,%d0
    29b4:	34c0           	movew %d0,%a2@+
    29b6:	b1ca           	cmpal %a2,%a0
    29b8:	66f4           	bnes 29ae <ide_read+0x3c>
    29ba:	246e fffc      	moveal %fp@(-4),%a2
    29be:	4e5e           	unlk %fp
    29c0:	4e75           	rts

000029c2 <ide_write>:
    29c2:	4e56 0000      	linkw %fp,#0
    29c6:	2f0a           	movel %a2,%sp@-
    29c8:	246e 0010      	moveal %fp@(16),%a2
    29cc:	203c 0000 03e8 	movel #1000,%d0
    29d2:	6004           	bras 29d8 <ide_write+0x16>
    29d4:	5380           	subql #1,%d0
    29d6:	670c           	beqs 29e4 <ide_write+0x22>
    29d8:	1239 8000 000e 	moveb 8000000e <io+0xe>,%d1
    29de:	6df4           	blts 29d4 <ide_write+0x12>
    29e0:	6000 0088      	braw 2a6a <ide_write+0xa8>
    29e4:	1039 8000 000e 	moveb 8000000e <io+0xe>,%d0
    29ea:	0280 0000 00ff 	andil #255,%d0
    29f0:	2f00           	movel %d0,%sp@-
    29f2:	4879 0000 72a5 	pea 72a5 <__FUNCTION__.884+0x115>
    29f8:	4eb9 0000 169c 	jsr 169c <printf>
    29fe:	70ff           	moveq #-1,%d0
    2a00:	6000 0088      	braw 2a8a <ide_write+0xc8>
    2a04:	1039 8000 000e 	moveb 8000000e <io+0xe>,%d0
    2a0a:	44c0           	movew %d0,%ccr
    2a0c:	6af6           	bpls 2a04 <ide_write+0x42>
    2a0e:	41ea 0200      	lea %a2@(512),%a0
    2a12:	3012           	movew %a2@,%d0
    2a14:	33c0 8000 0010 	movew %d0,80000010 <io+0x10>
    2a1a:	302a 0002      	movew %a2@(2),%d0
    2a1e:	33c0 8000 0010 	movew %d0,80000010 <io+0x10>
    2a24:	302a 0004      	movew %a2@(4),%d0
    2a28:	33c0 8000 0010 	movew %d0,80000010 <io+0x10>
    2a2e:	302a 0006      	movew %a2@(6),%d0
    2a32:	33c0 8000 0010 	movew %d0,80000010 <io+0x10>
    2a38:	302a 0008      	movew %a2@(8),%d0
    2a3c:	33c0 8000 0010 	movew %d0,80000010 <io+0x10>
    2a42:	302a 000a      	movew %a2@(10),%d0
    2a46:	33c0 8000 0010 	movew %d0,80000010 <io+0x10>
    2a4c:	302a 000c      	movew %a2@(12),%d0
    2a50:	33c0 8000 0010 	movew %d0,80000010 <io+0x10>
    2a56:	302a 000e      	movew %a2@(14),%d0
    2a5a:	33c0 8000 0010 	movew %d0,80000010 <io+0x10>
    2a60:	45ea 0010      	lea %a2@(16),%a2
    2a64:	b1ca           	cmpal %a2,%a0
    2a66:	66aa           	bnes 2a12 <ide_write+0x50>
    2a68:	6020           	bras 2a8a <ide_write+0xc8>
    2a6a:	4878 0001      	pea 1 <_text_start+0x1>
    2a6e:	2f2e 000c      	movel %fp@(12),%sp@-
    2a72:	2f2e 0008      	movel %fp@(8),%sp@-
    2a76:	4eba fbb0      	jsr %pc@(2628 <ide_setup>)
    2a7a:	13fc 0030 8000 	moveb #48,8000000e <io+0xe>
    2a80:	000e 
    2a82:	4fef 000c      	lea %sp@(12),%sp
    2a86:	6000 ff7c      	braw 2a04 <ide_write+0x42>
    2a8a:	246e fffc      	moveal %fp@(-4),%a2
    2a8e:	4e5e           	unlk %fp
    2a90:	4e75           	rts

00002a92 <ide_ident>:
    2a92:	4e56 0000      	linkw %fp,#0
    2a96:	2f0a           	movel %a2,%sp@-
    2a98:	246e 0010      	moveal %fp@(16),%a2
    2a9c:	1039 8000 000e 	moveb 8000000e <io+0xe>,%d0
    2aa2:	6df8           	blts 2a9c <ide_ident+0xa>
    2aa4:	4878 0001      	pea 1 <_text_start+0x1>
    2aa8:	2f2e 000c      	movel %fp@(12),%sp@-
    2aac:	2f2e 0008      	movel %fp@(8),%sp@-
    2ab0:	4eba fb76      	jsr %pc@(2628 <ide_setup>)
    2ab4:	13fc ffec 8000 	moveb #-20,8000000e <io+0xe>
    2aba:	000e 
    2abc:	4fef 000c      	lea %sp@(12),%sp
    2ac0:	203c 000d bba0 	movel #900000,%d0
    2ac6:	6004           	bras 2acc <ide_ident+0x3a>
    2ac8:	5380           	subql #1,%d0
    2aca:	670c           	beqs 2ad8 <ide_ident+0x46>
    2acc:	1239 8000 000e 	moveb 8000000e <io+0xe>,%d1
    2ad2:	44c1           	movew %d1,%ccr
    2ad4:	6af2           	bpls 2ac8 <ide_ident+0x36>
    2ad6:	603a           	bras 2b12 <ide_ident+0x80>
    2ad8:	1039 8000 000e 	moveb 8000000e <io+0xe>,%d0
    2ade:	0280 0000 00ff 	andil #255,%d0
    2ae4:	2f00           	movel %d0,%sp@-
    2ae6:	4878 00d2      	pea d2 <trap3+0x46>
    2aea:	4879 0000 72be 	pea 72be <__FUNCTION__.884+0x12e>
    2af0:	45f9 0000 169c 	lea 169c <printf>,%a2
    2af6:	4e92           	jsr %a2@
    2af8:	1039 8000 0002 	moveb 80000002 <io+0x2>,%d0
    2afe:	0280 0000 00ff 	andil #255,%d0
    2b04:	2f00           	movel %d0,%sp@-
    2b06:	4879 0000 724e 	pea 724e <__FUNCTION__.884+0xbe>
    2b0c:	4e92           	jsr %a2@
    2b0e:	70ff           	moveq #-1,%d0
    2b10:	6010           	bras 2b22 <ide_ident+0x90>
    2b12:	41ea 0200      	lea %a2@(512),%a0
    2b16:	3039 8000 0010 	movew 80000010 <io+0x10>,%d0
    2b1c:	34c0           	movew %d0,%a2@+
    2b1e:	b1ca           	cmpal %a2,%a0
    2b20:	66f4           	bnes 2b16 <ide_ident+0x84>
    2b22:	246e fffc      	moveal %fp@(-4),%a2
    2b26:	4e5e           	unlk %fp
    2b28:	4e75           	rts
	...

00002b2c <cpm>:
    2b2c:	4efa 0032      	jmp %pc@(2b60 <ccpstart>)
    2b30:	4efa 0028      	jmp %pc@(2b5a <ccpclear>)

00002b34 <copy>:
    2b34:	434f           	.short 0x434f
    2b36:	5059           	addqw #8,%a1@+
    2b38:	5249           	addqw #1,%a1
    2b3a:	4748           	.short 0x4748
    2b3c:	5420           	addqb #2,%a0@-
    2b3e:	2843           	moveal %d3,%a4
    2b40:	2920           	movel %a0@-,%a4@-
    2b42:	3139 3832 2c20 	movew 38322c20 <_text_end+0x3831b6fc>,%a0@-
    2b48:	4469 6769      	negw %a1@(26473)
    2b4c:	7461           	moveq #97,%d2
    2b4e:	6c20           	bges 2b70 <ccpstart+0x10>
    2b50:	5265           	addqw #1,%a5@-
    2b52:	7365           	mvsw %a5@-,%d1
    2b54:	6172           	bsrs 2bc8 <ccpstart+0x68>
    2b56:	6368           	blss 2bc0 <ccpstart+0x60>
	...

00002b5a <ccpclear>:
    2b5a:	4239 ff00 1384 	clrb ff001384 <autost>

00002b60 <ccpstart>:
    2b60:	4ff9 ff00 1afc 	lea ff001afc <stack>,%sp
    2b66:	4239 ff00 1384 	clrb ff001384 <autost>
    2b6c:	4eb9 0000 1240 	jsr 1240 <_init>
    2b72:	33c0 ff00 1408 	movew %d0,ff001408 <dskuser>
    2b78:	4239 ff00 2b90 	clrb ff002b90 <load_try>
    2b7e:	4239 ff00 140a 	clrb ff00140a <submit>
    2b84:	4239 ff00 140c 	clrb ff00140c <morecmds>
    2b8a:	13fc 0001 ff00 	moveb #1,ff002c95 <autorom>
    2b90:	2c95 
    2b92:	4279 ff00 1488 	clrw ff001488 <flags>
    2b98:	4279 ff00 148a 	clrw ff00148a <TPAB>
    2b9e:	4eb9 0000 4844 	jsr 4844 <init_tbl>
    2ba4:	4eb9 0000 4d68 	jsr 4d68 <bdosinit>
    2baa:	303c 0020      	movew #32,%d0
    2bae:	4281           	clrl %d1
    2bb0:	1239 ff00 1408 	moveb ff001408 <dskuser>,%d1
    2bb6:	4e42           	trap #2
    2bb8:	4280           	clrl %d0
    2bba:	303c 000e      	movew #14,%d0
    2bbe:	4281           	clrl %d1
    2bc0:	3239 ff00 1408 	movew ff001408 <dskuser>,%d1
    2bc6:	0241 00ff      	andiw #255,%d1
    2bca:	4e42           	trap #2

00002bcc <ccp>:
    2bcc:	4ff9 ff00 1afc 	lea ff001afc <stack>,%sp
    2bd2:	4eb9 0000 4606 	jsr 4606 <main>
    2bd8:	6000 fff2      	braw 2bcc <ccp>

00002bdc <load68k>:
    2bdc:	223c ff00 148a 	movel #-16771958,%d1
    2be2:	303c 003f      	movew #63,%d0
    2be6:	4e42           	trap #2
    2be8:	23f9 ff00 148c 	movel ff00148c <low>,ff001478 <lowadr>
    2bee:	ff00 1478 
    2bf2:	23f9 ff00 1490 	movel ff001490 <high>,ff00147c <hiadr>
    2bf8:	ff00 147c 
    2bfc:	23fc ff00 2c9b 	movel #-16765797,ff001474 <LPB>
    2c02:	ff00 1474 
    2c06:	703b           	moveq #59,%d0
    2c08:	223c ff00 1474 	movel #-16771980,%d1
    2c0e:	4e42           	trap #2
    2c10:	4a40           	tstw %d0
    2c12:	6600 00a6      	bnew 2cba <lderr>
    2c16:	3239 ff00 2d28 	movew ff002d28 <user>,%d1
    2c1c:	7020           	moveq #32,%d0
    2c1e:	4e42           	trap #2
    2c20:	4281           	clrl %d1
    2c22:	2239 ff00 1480 	movel ff001480 <baspag>,%d1
    2c28:	0641 0080      	addiw #128,%d1
    2c2c:	2241           	moveal %d1,%a1
    2c2e:	303c 001a      	movew #26,%d0
    2c32:	4e42           	trap #2
    2c34:	2449           	moveal %a1,%a2
    2c36:	5289           	addql #1,%a1
    2c38:	2079 ff00 2d2c 	moveal ff002d2c <tail>,%a0
    2c3e:	4280           	clrl %d0

00002c40 <mvtail>:
    2c40:	0c10 0000      	cmpib #0,%a0@
    2c44:	6700 0012      	beqw 2c58 <done>
    2c48:	0c10 0021      	cmpib #33,%a0@
    2c4c:	6700 000a      	beqw 2c58 <done>
    2c50:	12d8           	moveb %a0@+,%a1@+
    2c52:	5240           	addqw #1,%d0
    2c54:	6000 ffea      	braw 2c40 <mvtail>

00002c58 <done>:
    2c58:	1480           	moveb %d0,%a2@
    2c5a:	12bc 0000      	moveb #0,%a1@
    2c5e:	2f3c ff00 2c9b 	movel #-16765797,%sp@-
    2c64:	2f3c 0000 0001 	movel #1,%sp@-
    2c6a:	4eb9 0000 312c 	jsr 312c <fill_fcb>
    2c70:	5c8f           	addql #6,%sp
    2c72:	4280           	clrl %d0
    2c74:	705c           	moveq #92,%d0
    2c76:	6100 004a      	bsrw 2cc2 <movfcb>
    2c7a:	2f3c ff00 2c9b 	movel #-16765797,%sp@-
    2c80:	2f3c 0000 0002 	movel #2,%sp@-
    2c86:	4eb9 0000 312c 	jsr 312c <fill_fcb>
    2c8c:	5c8f           	addql #6,%sp
    2c8e:	4280           	clrl %d0
    2c90:	7038           	moveq #56,%d0
    2c92:	6100 002e      	bsrw 2cc2 <movfcb>
    2c96:	2079 ff00 1484 	moveal ff001484 <usrstk>,%a0
    2c9c:	2279 ff00 1480 	moveal ff001480 <baspag>,%a1
    2ca2:	2f29 0008      	movel %a1@(8),%sp@-
    2ca6:	40c0           	movew %sr,%d0
    2ca8:	0240 5f00      	andiw #24320,%d0
    2cac:	3f00           	movew %d0,%sp@-
    2cae:	2109           	movel %a1,%a0@-
    2cb0:	213c 0000 2cbc 	movel #11452,%a0@-
    2cb6:	4e60           	movel %a0,%usp
    2cb8:	4e73           	rte

00002cba <lderr>:
    2cba:	4e75           	rts

00002cbc <cmdrtn>:
    2cbc:	303c 0000      	movew #0,%d0
    2cc0:	4e42           	trap #2

00002cc2 <movfcb>:
    2cc2:	d0b9 ff00 1480 	addl ff001480 <baspag>,%d0
    2cc8:	2040           	moveal %d0,%a0
    2cca:	227c ff00 2c9b 	moveal #-16765797,%a1
    2cd0:	4280           	clrl %d0
    2cd2:	7023           	moveq #35,%d0

00002cd4 <mov1>:
    2cd4:	10d9           	moveb %a1@+,%a0@+
    2cd6:	51c8 fffc      	dbf %d0,2cd4 <mov1>
    2cda:	4e75           	rts

00002cdc <cr_lf>:
    2cdc:	4e56 0000      	linkw %fp,#0
    2ce0:	2f0a           	movel %a2,%sp@-
    2ce2:	4878 000d      	pea d <BasPage+0x1>
    2ce6:	4878 0002      	pea 2 <buserr>
    2cea:	45f9 0000 4898 	lea 4898 <bdos>,%a2
    2cf0:	4e92           	jsr %a2@
    2cf2:	4878 000a      	pea a <printstr+0x1>
    2cf6:	4878 0002      	pea 2 <buserr>
    2cfa:	4e92           	jsr %a2@
    2cfc:	4fef 0010      	lea %sp@(16),%sp
    2d00:	246e fffc      	moveal %fp@(-4),%a2
    2d04:	4e5e           	unlk %fp
    2d06:	4e75           	rts

00002d08 <cpy>:
    2d08:	4e56 0000      	linkw %fp,#0
    2d0c:	226e 000c      	moveal %fp@(12),%a1
    2d10:	206e 0008      	moveal %fp@(8),%a0
    2d14:	1018           	moveb %a0@+,%d0
    2d16:	12c0           	moveb %d0,%a1@+
    2d18:	66fa           	bnes 2d14 <cpy+0xc>
    2d1a:	4e5e           	unlk %fp
    2d1c:	4e75           	rts

00002d1e <strcmp>:
    2d1e:	4e56 0000      	linkw %fp,#0
    2d22:	226e 0008      	moveal %fp@(8),%a1
    2d26:	206e 000c      	moveal %fp@(12),%a0
    2d2a:	6008           	bras 2d34 <strcmp+0x16>
    2d2c:	1218           	moveb %a0@+,%d1
    2d2e:	b200           	cmpb %d0,%d1
    2d30:	6d0e           	blts 2d40 <strcmp+0x22>
    2d32:	6e10           	bgts 2d44 <strcmp+0x26>
    2d34:	1019           	moveb %a1@+,%d0
    2d36:	66f4           	bnes 2d2c <strcmp+0xe>
    2d38:	4a10           	tstb %a0@
    2d3a:	56c0           	sne %d0
    2d3c:	4880           	extw %d0
    2d3e:	6006           	bras 2d46 <strcmp+0x28>
    2d40:	7001           	moveq #1,%d0
    2d42:	6002           	bras 2d46 <strcmp+0x28>
    2d44:	70ff           	moveq #-1,%d0
    2d46:	4e5e           	unlk %fp
    2d48:	4e75           	rts

00002d4a <copy_cmd>:
    2d4a:	4e56 0000      	linkw %fp,#0
    2d4e:	2f0a           	movel %a2,%sp@-
    2d50:	41f9 ff00 2dde 	lea ff002dde <save_sub>,%a0
    2d56:	45f9 ff00 2cbf 	lea ff002cbf <parm>,%a2
    2d5c:	4a39 ff00 2d30 	tstb ff002d30 <subprompt>
    2d62:	6606           	bnes 2d6a <copy_cmd+0x20>
    2d64:	6018           	bras 2d7e <copy_cmd+0x34>
    2d66:	1080           	moveb %d0,%a0@
    2d68:	2049           	moveal %a1,%a0
    2d6a:	101a           	moveb %a2@+,%d0
    2d6c:	43e8 0001      	lea %a0@(1),%a1
    2d70:	66f4           	bnes 2d66 <copy_cmd+0x1c>
    2d72:	10bc 0020      	moveb #32,%a0@
    2d76:	2049           	moveal %a1,%a0
    2d78:	4239 ff00 2d30 	clrb ff002d30 <subprompt>
    2d7e:	226e 0008      	moveal %fp@(8),%a1
    2d82:	6002           	bras 2d86 <copy_cmd+0x3c>
    2d84:	10c0           	moveb %d0,%a0@+
    2d86:	1019           	moveb %a1@+,%d0
    2d88:	6706           	beqs 2d90 <copy_cmd+0x46>
    2d8a:	0c00 0021      	cmpib #33,%d0
    2d8e:	66f4           	bnes 2d84 <copy_cmd+0x3a>
    2d90:	4210           	clrb %a0@
    2d92:	245f           	moveal %sp@+,%a2
    2d94:	4e5e           	unlk %fp
    2d96:	4e75           	rts

00002d98 <prompt>:
    2d98:	4e56 fffc      	linkw %fp,#-4
    2d9c:	2f0a           	movel %a2,%sp@-
    2d9e:	2f02           	movel %d2,%sp@-
    2da0:	4878 00ff      	pea ff <trap3+0x73>
    2da4:	4878 0020      	pea 20 <chuser>
    2da8:	45f9 0000 4898 	lea 4898 <bdos>,%a2
    2dae:	4e92           	jsr %a2@
    2db0:	3400           	movew %d0,%d2
    2db2:	42a7           	clrl %sp@-
    2db4:	4878 0019      	pea 19 <spurious+0x1>
    2db8:	4e92           	jsr %a2@
    2dba:	3440           	moveaw %d0,%a2
    2dbc:	45ea 0041      	lea %a2@(65),%a2
    2dc0:	4eba ff1a      	jsr %pc@(2cdc <cr_lf>)
    2dc4:	4fef 0010      	lea %sp@(16),%sp
    2dc8:	4a42           	tstw %d2
    2dca:	673a           	beqs 2e06 <prompt+0x6e>
    2dcc:	0c42 0009      	cmpiw #9,%d2
    2dd0:	6316           	blss 2de8 <prompt+0x50>
    2dd2:	1d7c 0031 fffd 	moveb #49,%fp@(-3)
    2dd8:	0602 0026      	addib #38,%d2
    2ddc:	1d42 fffe      	moveb %d2,%fp@(-2)
    2de0:	1d7c 0024 ffff 	moveb #36,%fp@(-1)
    2de6:	600e           	bras 2df6 <prompt+0x5e>
    2de8:	0602 0030      	addib #48,%d2
    2dec:	1d42 fffd      	moveb %d2,%fp@(-3)
    2df0:	1d7c 0024 fffe 	moveb #36,%fp@(-2)
    2df6:	486e fffd      	pea %fp@(-3)
    2dfa:	4878 0009      	pea 9 <printstr>
    2dfe:	4eb9 0000 4898 	jsr 4898 <bdos>
    2e04:	508f           	addql #8,%sp
    2e06:	3f0a           	movew %a2,%sp@-
    2e08:	4267           	clrw %sp@-
    2e0a:	4878 0002      	pea 2 <buserr>
    2e0e:	45f9 0000 4898 	lea 4898 <bdos>,%a2
    2e14:	4e92           	jsr %a2@
    2e16:	4878 003e      	pea 3e <setsupf>
    2e1a:	4878 0002      	pea 2 <buserr>
    2e1e:	4e92           	jsr %a2@
    2e20:	4fef 0010      	lea %sp@(16),%sp
    2e24:	242e fff4      	movel %fp@(-12),%d2
    2e28:	246e fff8      	moveal %fp@(-8),%a2
    2e2c:	4e5e           	unlk %fp
    2e2e:	4e75           	rts

00002e30 <echo_cmd>:
    2e30:	4e56 0000      	linkw %fp,#0
    2e34:	48e7 2030      	moveml %d2/%a2-%a3,%sp@-
    2e38:	246e 0008      	moveal %fp@(8),%a2
    2e3c:	342e 000e      	movew %fp@(14),%d2
    2e40:	0c42 0001      	cmpiw #1,%d2
    2e44:	6614           	bnes 2e5a <echo_cmd+0x2a>
    2e46:	4a39 ff00 1384 	tstb ff001384 <autost>
    2e4c:	6708           	beqs 2e56 <echo_cmd+0x26>
    2e4e:	4a39 ff00 2c95 	tstb ff002c95 <autorom>
    2e54:	6604           	bnes 2e5a <echo_cmd+0x2a>
    2e56:	4eba ff40      	jsr %pc@(2d98 <prompt>)
    2e5a:	47f9 0000 4898 	lea 4898 <bdos>,%a3
    2e60:	600c           	bras 2e6e <echo_cmd+0x3e>
    2e62:	49c0           	extbl %d0
    2e64:	2f00           	movel %d0,%sp@-
    2e66:	4878 0002      	pea 2 <buserr>
    2e6a:	4e93           	jsr %a3@
    2e6c:	508f           	addql #8,%sp
    2e6e:	101a           	moveb %a2@+,%d0
    2e70:	6706           	beqs 2e78 <echo_cmd+0x48>
    2e72:	0c00 0021      	cmpib #33,%d0
    2e76:	66ea           	bnes 2e62 <echo_cmd+0x32>
    2e78:	4a42           	tstw %d2
    2e7a:	661a           	bnes 2e96 <echo_cmd+0x66>
    2e7c:	4878 003f      	pea 3f <gettpa>
    2e80:	4878 0002      	pea 2 <buserr>
    2e84:	4eb9 0000 4898 	jsr 4898 <bdos>
    2e8a:	508f           	addql #8,%sp
    2e8c:	4cee 0c04 fff4 	moveml %fp@(-12),%d2/%a2-%a3
    2e92:	4e5e           	unlk %fp
    2e94:	4e75           	rts
    2e96:	4cee 0c04 fff4 	moveml %fp@(-12),%d2/%a2-%a3
    2e9c:	4e5e           	unlk %fp
    2e9e:	6000 fe3c      	braw 2cdc <cr_lf>

00002ea2 <check_cmd>:
    2ea2:	4e56 0000      	linkw %fp,#0
    2ea6:	226e 0008      	moveal %fp@(8),%a1
    2eaa:	2049           	moveal %a1,%a0
    2eac:	1019           	moveb %a1@+,%d0
    2eae:	6728           	beqs 2ed8 <check_cmd+0x36>
    2eb0:	0c00 0021      	cmpib #33,%d0
    2eb4:	66f4           	bnes 2eaa <check_cmd+0x8>
    2eb6:	4a28 0001      	tstb %a0@(1)
    2eba:	671c           	beqs 2ed8 <check_cmd+0x36>
    2ebc:	13fc 0001 ff00 	moveb #1,ff00140c <morecmds>
    2ec2:	140c 
    2ec4:	2049           	moveal %a1,%a0
    2ec6:	2248           	moveal %a0,%a1
    2ec8:	5288           	addql #1,%a0
    2eca:	0c11 0020      	cmpib #32,%a1@
    2ece:	67f6           	beqs 2ec6 <check_cmd+0x24>
    2ed0:	23c9 ff00 2e60 	movel %a1,ff002e60 <user_ptr>
    2ed6:	6030           	bras 2f08 <check_cmd+0x66>
    2ed8:	4a39 ff00 140a 	tstb ff00140a <submit>
    2ede:	6722           	beqs 2f02 <check_cmd+0x60>
    2ee0:	4a39 ff00 2d58 	tstb ff002d58 <end_of_file>
    2ee6:	6710           	beqs 2ef8 <check_cmd+0x56>
    2ee8:	4239 ff00 140a 	clrb ff00140a <submit>
    2eee:	2079 ff00 2e60 	moveal ff002e60 <user_ptr>,%a0
    2ef4:	4a10           	tstb %a0@
    2ef6:	6710           	beqs 2f08 <check_cmd+0x66>
    2ef8:	13fc 0001 ff00 	moveb #1,ff00140c <morecmds>
    2efe:	140c 
    2f00:	6006           	bras 2f08 <check_cmd+0x66>
    2f02:	4239 ff00 140c 	clrb ff00140c <morecmds>
    2f08:	4e5e           	unlk %fp
    2f0a:	4e75           	rts

00002f0c <get_cmd>:
    2f0c:	4e56 0000      	linkw %fp,#0
    2f10:	2f0a           	movel %a2,%sp@-
    2f12:	2f02           	movel %d2,%sp@-
    2f14:	246e 0008      	moveal %fp@(8),%a2
    2f18:	242e 000c      	movel %fp@(12),%d2
    2f1c:	5382           	subql #1,%d2
    2f1e:	d48a           	addl %a2,%d2
    2f20:	13fc ff80 ff00 	moveb #-128,ff002b91 <dma>
    2f26:	2b91 
    2f28:	4879 ff00 2b91 	pea ff002b91 <dma>
    2f2e:	4878 000a      	pea a <printstr+0x1>
    2f32:	4eb9 0000 4898 	jsr 4898 <bdos>
    2f38:	508f           	addql #8,%sp
    2f3a:	4a39 ff00 2b92 	tstb ff002b92 <dma+0x1>
    2f40:	670e           	beqs 2f50 <get_cmd+0x44>
    2f42:	0c39 003b ff00 	cmpib #59,ff002b93 <dma+0x2>
    2f48:	2b93 
    2f4a:	6704           	beqs 2f50 <get_cmd+0x44>
    2f4c:	4eba fd8e      	jsr %pc@(2cdc <cr_lf>)
    2f50:	4280           	clrl %d0
    2f52:	1039 ff00 2b92 	moveb ff002b92 <dma+0x1>,%d0
    2f58:	11bc 000a 09b0 	moveb #10,@(ffffffffff002b93,%d0:l)
    2f5e:	ff00 2b93 
    2f62:	0c39 003b ff00 	cmpib #59,ff002b93 <dma+0x2>
    2f68:	2b93 
    2f6a:	6608           	bnes 2f74 <get_cmd+0x68>
    2f6c:	13fc 000a ff00 	moveb #10,ff002b93 <dma+0x2>
    2f72:	2b93 
    2f74:	43f9 ff00 2b93 	lea ff002b93 <dma+0x2>,%a1
    2f7a:	2049           	moveal %a1,%a0
    2f7c:	1019           	moveb %a1@+,%d0
    2f7e:	0c00 0020      	cmpib #32,%d0
    2f82:	67f6           	beqs 2f7a <get_cmd+0x6e>
    2f84:	0c00 0009      	cmpib #9,%d0
    2f88:	67f0           	beqs 2f7a <get_cmd+0x6e>
    2f8a:	6034           	bras 2fc0 <get_cmd+0xb4>
    2f8c:	1200           	moveb %d0,%d1
    2f8e:	0601 ff9f      	addib #-97,%d1
    2f92:	0c01 0019      	cmpib #25,%d1
    2f96:	6204           	bhis 2f9c <get_cmd+0x90>
    2f98:	0600 ffe0      	addib #-32,%d0
    2f9c:	14c0           	moveb %d0,%a2@+
    2f9e:	1010           	moveb %a0@,%d0
    2fa0:	0c00 0020      	cmpib #32,%d0
    2fa4:	6706           	beqs 2fac <get_cmd+0xa0>
    2fa6:	0c00 0009      	cmpib #9,%d0
    2faa:	6612           	bnes 2fbe <get_cmd+0xb2>
    2fac:	5288           	addql #1,%a0
    2fae:	1010           	moveb %a0@,%d0
    2fb0:	0c00 0020      	cmpib #32,%d0
    2fb4:	67f6           	beqs 2fac <get_cmd+0xa0>
    2fb6:	0c00 0009      	cmpib #9,%d0
    2fba:	67f0           	beqs 2fac <get_cmd+0xa0>
    2fbc:	6002           	bras 2fc0 <get_cmd+0xb4>
    2fbe:	5288           	addql #1,%a0
    2fc0:	1010           	moveb %a0@,%d0
    2fc2:	0c00 000a      	cmpib #10,%d0
    2fc6:	6704           	beqs 2fcc <get_cmd+0xc0>
    2fc8:	b48a           	cmpl %a2,%d2
    2fca:	62c0           	bhis 2f8c <get_cmd+0x80>
    2fcc:	4212           	clrb %a2@
    2fce:	242e fff8      	movel %fp@(-8),%d2
    2fd2:	246e fffc      	moveal %fp@(-4),%a2
    2fd6:	4e5e           	unlk %fp
    2fd8:	4e75           	rts

00002fda <scan_cmd>:
    2fda:	4e56 0000      	linkw %fp,#0
    2fde:	2f02           	movel %d2,%sp@-
    2fe0:	226e 0008      	moveal %fp@(8),%a1
    2fe4:	2049           	moveal %a1,%a0
    2fe6:	1019           	moveb %a1@+,%d0
    2fe8:	0c00 0021      	cmpib #33,%d0
    2fec:	6704           	beqs 2ff2 <scan_cmd+0x18>
    2fee:	4a00           	tstb %d0
    2ff0:	66f2           	bnes 2fe4 <scan_cmd+0xa>
    2ff2:	2008           	movel %a0,%d0
    2ff4:	1218           	moveb %a0@+,%d1
    2ff6:	1401           	moveb %d1,%d2
    2ff8:	0602 ffe0      	addib #-32,%d2
    2ffc:	0c02 0001      	cmpib #1,%d2
    3000:	63f0           	blss 2ff2 <scan_cmd+0x18>
    3002:	0c01 0009      	cmpib #9,%d1
    3006:	67ea           	beqs 2ff2 <scan_cmd+0x18>
    3008:	241f           	movel %sp@+,%d2
    300a:	4e5e           	unlk %fp
    300c:	4e75           	rts

0000300e <get_parms>:
    300e:	4e56 0000      	linkw %fp,#0
    3012:	48e7 3800      	moveml %d2-%d4,%sp@-
    3016:	206e 0008      	moveal %fp@(8),%a0
    301a:	43f9 ff00 2cbf 	lea ff002cbf <parm>,%a1
    3020:	4219           	clrb %a1@+
    3022:	b3fc ff00 2d27 	cmpal #-16765657,%a1
    3028:	66f6           	bnes 3020 <get_parms+0x12>
    302a:	4240           	clrw %d0
    302c:	606e           	bras 309c <get_parms+0x8e>
    302e:	0c41 0018      	cmpiw #24,%d1
    3032:	6210           	bhis 3044 <get_parms+0x36>
    3034:	4284           	clrl %d4
    3036:	3801           	movew %d1,%d4
    3038:	2044           	moveal %d4,%a0
    303a:	1182 3930 ff00 	moveb %d2,%a0@(ffffffffff002cbf,%d3:l)
    3040:	2cbf 
    3042:	5241           	addqw #1,%d1
    3044:	2049           	moveal %a1,%a0
    3046:	1419           	moveb %a1@+,%d2
    3048:	1802           	moveb %d2,%d4
    304a:	0604 ffe0      	addib #-32,%d4
    304e:	0c04 0001      	cmpib #1,%d4
    3052:	630a           	blss 305e <get_parms+0x50>
    3054:	0c02 0009      	cmpib #9,%d2
    3058:	6704           	beqs 305e <get_parms+0x50>
    305a:	4a02           	tstb %d2
    305c:	66d0           	bnes 302e <get_parms+0x20>
    305e:	0281 0000 ffff 	andil #65535,%d1
    3064:	4282           	clrl %d2
    3066:	3400           	movew %d0,%d2
    3068:	2802           	movel %d2,%d4
    306a:	e58c           	lsll #2,%d4
    306c:	2602           	movel %d2,%d3
    306e:	e98b           	lsll #4,%d3
    3070:	9684           	subl %d4,%d3
    3072:	d483           	addl %d3,%d2
    3074:	2241           	moveal %d1,%a1
    3076:	4231 2b30 ff00 	clrb %a1@(ffffffffff002cbf,%d2:l:2)
    307c:	2cbf 
    307e:	5240           	addqw #1,%d0
    3080:	1210           	moveb %a0@,%d1
    3082:	0c01 0020      	cmpib #32,%d1
    3086:	6706           	beqs 308e <get_parms+0x80>
    3088:	0c01 0009      	cmpib #9,%d1
    308c:	6602           	bnes 3090 <get_parms+0x82>
    308e:	5288           	addql #1,%a0
    3090:	0c40 0001      	cmpiw #1,%d0
    3094:	6606           	bnes 309c <get_parms+0x8e>
    3096:	23c8 ff00 2d2c 	movel %a0,ff002d2c <tail>
    309c:	1210           	moveb %a0@,%d1
    309e:	6724           	beqs 30c4 <get_parms+0xb6>
    30a0:	0c01 0021      	cmpib #33,%d1
    30a4:	671e           	beqs 30c4 <get_parms+0xb6>
    30a6:	0c40 0003      	cmpiw #3,%d0
    30aa:	6218           	bhis 30c4 <get_parms+0xb6>
    30ac:	2248           	moveal %a0,%a1
    30ae:	4241           	clrw %d1
    30b0:	4282           	clrl %d2
    30b2:	3400           	movew %d0,%d2
    30b4:	2802           	movel %d2,%d4
    30b6:	e58c           	lsll #2,%d4
    30b8:	2602           	movel %d2,%d3
    30ba:	e98b           	lsll #4,%d3
    30bc:	9684           	subl %d4,%d3
    30be:	d682           	addl %d2,%d3
    30c0:	d683           	addl %d3,%d3
    30c2:	6080           	bras 3044 <get_parms+0x36>
    30c4:	4cdf 001c      	moveml %sp@+,%d2-%d4
    30c8:	4e5e           	unlk %fp
    30ca:	4e75           	rts

000030cc <delim>:
    30cc:	4e56 0000      	linkw %fp,#0
    30d0:	206e 0008      	moveal %fp@(8),%a0
    30d4:	1010           	moveb %a0@,%d0
    30d6:	0c00 0020      	cmpib #32,%d0
    30da:	6f16           	bles 30f2 <delim+0x26>
    30dc:	41f9 ff00 1174 	lea ff001174 <del>,%a0
    30e2:	b018           	cmpb %a0@+,%d0
    30e4:	670c           	beqs 30f2 <delim+0x26>
    30e6:	b1fc ff00 1184 	cmpal #-16772732,%a0
    30ec:	66f4           	bnes 30e2 <delim+0x16>
    30ee:	4240           	clrw %d0
    30f0:	6002           	bras 30f4 <delim+0x28>
    30f2:	7001           	moveq #1,%d0
    30f4:	4e5e           	unlk %fp
    30f6:	4e75           	rts

000030f8 <true_char>:
    30f8:	4e56 0000      	linkw %fp,#0
    30fc:	2f0a           	movel %a2,%sp@-
    30fe:	246e 0008      	moveal %fp@(8),%a2
    3102:	0c12 002a      	cmpib #42,%a2@
    3106:	6716           	beqs 311e <true_char+0x26>
    3108:	2f0a           	movel %a2,%sp@-
    310a:	4eba ffc0      	jsr %pc@(30cc <delim>)
    310e:	588f           	addql #4,%sp
    3110:	4a40           	tstw %d0
    3112:	660e           	bnes 3122 <true_char+0x2a>
    3114:	5279 ff00 2d56 	addqw #1,ff002d56 <index>
    311a:	1012           	moveb %a2@,%d0
    311c:	6006           	bras 3124 <true_char+0x2c>
    311e:	703f           	moveq #63,%d0
    3120:	6002           	bras 3124 <true_char+0x2c>
    3122:	7020           	moveq #32,%d0
    3124:	246e fffc      	moveal %fp@(-4),%a2
    3128:	4e5e           	unlk %fp
    312a:	4e75           	rts

0000312c <fill_fcb>:
    312c:	4e56 0000      	linkw %fp,#0
    3130:	48e7 3c3c      	moveml %d2-%d5/%a2-%a5,%sp@-
    3134:	246e 000c      	moveal %fp@(12),%a2
    3138:	342e 000a      	movew %fp@(10),%d2
    313c:	4212           	clrb %a2@
    313e:	41ea 000c      	lea %a2@(12),%a0
    3142:	7018           	moveq #24,%d0
    3144:	4218           	clrb %a0@+
    3146:	5340           	subqw #1,%d0
    3148:	66fa           	bnes 3144 <fill_fcb+0x18>
    314a:	47ea 0001      	lea %a2@(1),%a3
    314e:	284b           	moveal %a3,%a4
    3150:	204b           	moveal %a3,%a0
    3152:	103c 000b      	moveb #11,%d0
    3156:	10fc 0020      	moveb #32,%a0@+
    315a:	5340           	subqw #1,%d0
    315c:	66f8           	bnes 3156 <fill_fcb+0x2a>
    315e:	4a39 ff00 2d2a 	tstb ff002d2a <dirflag>
    3164:	6704           	beqs 316a <fill_fcb+0x3e>
    3166:	703f           	moveq #63,%d0
    3168:	6002           	bras 316c <fill_fcb+0x40>
    316a:	7020           	moveq #32,%d0
    316c:	4279 ff00 2d56 	clrw ff002d56 <index>
    3172:	4281           	clrl %d1
    3174:	3202           	movew %d2,%d1
    3176:	2601           	movel %d1,%d3
    3178:	e58b           	lsll #2,%d3
    317a:	2a01           	movel %d1,%d5
    317c:	e98d           	lsll #4,%d5
    317e:	9a83           	subl %d3,%d5
    3180:	da81           	addl %d1,%d5
    3182:	2205           	movel %d5,%d1
    3184:	d281           	addl %d1,%d1
    3186:	1630 19b0 ff00 	moveb @(ffffffffff002cbf,%d1:l),%d3
    318c:	2cbf 
    318e:	661e           	bnes 31ae <fill_fcb+0x82>
    3190:	41ea 000c      	lea %a2@(12),%a0
    3194:	16c0           	moveb %d0,%a3@+
    3196:	b1cb           	cmpal %a3,%a0
    3198:	66fa           	bnes 3194 <fill_fcb+0x68>
    319a:	42a7           	clrl %sp@-
    319c:	4878 0019      	pea 19 <spurious+0x1>
    31a0:	4eb9 0000 4898 	jsr 4898 <bdos>
    31a6:	5200           	addqb #1,%d0
    31a8:	1480           	moveb %d0,%a2@
    31aa:	508f           	addql #8,%sp
    31ac:	603a           	bras 31e8 <fill_fcb+0xbc>
    31ae:	0c30 003a 19b0 	cmpib #58,@(ffffffffff002cc0,%d1:l)
    31b4:	ff00 2cc0 
    31b8:	663e           	bnes 31f8 <fill_fcb+0xcc>
    31ba:	0603 ffc0      	addib #-64,%d3
    31be:	1483           	moveb %d3,%a2@
    31c0:	3079 ff00 2d56 	moveaw ff002d56 <index>,%a0
    31c6:	5448           	addqw #2,%a0
    31c8:	33c8 ff00 2d56 	movew %a0,ff002d56 <index>
    31ce:	4283           	clrl %d3
    31d0:	3608           	movew %a0,%d3
    31d2:	2041           	moveal %d1,%a0
    31d4:	4a30 3930 ff00 	tstb %a0@(ffffffffff002cbf,%d3:l)
    31da:	2cbf 
    31dc:	662c           	bnes 320a <fill_fcb+0xde>
    31de:	45ea 000c      	lea %a2@(12),%a2
    31e2:	16c0           	moveb %d0,%a3@+
    31e4:	b5cb           	cmpal %a3,%a2
    31e6:	66fa           	bnes 31e2 <fill_fcb+0xb6>
    31e8:	4a39 ff00 2d2a 	tstb ff002d2a <dirflag>
    31ee:	6700 00ce      	beqw 32be <fill_fcb+0x192>
    31f2:	700b           	moveq #11,%d0
    31f4:	6000 00ca      	braw 32c0 <fill_fcb+0x194>
    31f8:	42a7           	clrl %sp@-
    31fa:	4878 0019      	pea 19 <spurious+0x1>
    31fe:	4eb9 0000 4898 	jsr 4898 <bdos>
    3204:	5200           	addqb #1,%d0
    3206:	1480           	moveb %d0,%a2@
    3208:	508f           	addql #8,%sp
    320a:	0282 0000 ffff 	andil #65535,%d2
    3210:	2202           	movel %d2,%d1
    3212:	e589           	lsll #2,%d1
    3214:	2002           	movel %d2,%d0
    3216:	e988           	lsll #4,%d0
    3218:	9081           	subl %d1,%d0
    321a:	d480           	addl %d0,%d2
    321c:	d482           	addl %d2,%d2
    321e:	7609           	moveq #9,%d3
    3220:	d68a           	addl %a2,%d3
    3222:	4bfa fed4      	lea %pc@(30f8 <true_char>),%a5
    3226:	4280           	clrl %d0
    3228:	3039 ff00 2d56 	movew ff002d56 <index>,%d0
    322e:	2042           	moveal %d2,%a0
    3230:	4870 0930 ff00 	pea %a0@(ffffffffff002cbf,%d0:l)
    3236:	2cbf 
    3238:	4e95           	jsr %a5@
    323a:	16c0           	moveb %d0,%a3@+
    323c:	588f           	addql #4,%sp
    323e:	b68b           	cmpl %a3,%d3
    3240:	66e4           	bnes 3226 <fill_fcb+0xfa>
    3242:	47ea 0009      	lea %a2@(9),%a3
    3246:	4bfa fe84      	lea %pc@(30cc <delim>),%a5
    324a:	6008           	bras 3254 <fill_fcb+0x128>
    324c:	5243           	addqw #1,%d3
    324e:	33c3 ff00 2d56 	movew %d3,ff002d56 <index>
    3254:	3639 ff00 2d56 	movew ff002d56 <index>,%d3
    325a:	4284           	clrl %d4
    325c:	3803           	movew %d3,%d4
    325e:	2042           	moveal %d2,%a0
    3260:	4870 4930 ff00 	pea %a0@(ffffffffff002cbf,%d4:l)
    3266:	2cbf 
    3268:	4e95           	jsr %a5@
    326a:	588f           	addql #4,%sp
    326c:	4a40           	tstw %d0
    326e:	67dc           	beqs 324c <fill_fcb+0x120>
    3270:	da85           	addl %d5,%d5
    3272:	2044           	moveal %d4,%a0
    3274:	0c30 002e 5930 	cmpib #46,%a0@(ffffffffff002cbf,%d5:l)
    327a:	ff00 2cbf 
    327e:	662c           	bnes 32ac <fill_fcb+0x180>
    3280:	5243           	addqw #1,%d3
    3282:	33c3 ff00 2d56 	movew %d3,ff002d56 <index>
    3288:	45ea 000c      	lea %a2@(12),%a2
    328c:	4bfa fe6a      	lea %pc@(30f8 <true_char>),%a5
    3290:	4280           	clrl %d0
    3292:	3039 ff00 2d56 	movew ff002d56 <index>,%d0
    3298:	2042           	moveal %d2,%a0
    329a:	4870 0930 ff00 	pea %a0@(ffffffffff002cbf,%d0:l)
    32a0:	2cbf 
    32a2:	4e95           	jsr %a5@
    32a4:	16c0           	moveb %d0,%a3@+
    32a6:	588f           	addql #4,%sp
    32a8:	b5cb           	cmpal %a3,%a2
    32aa:	66e4           	bnes 3290 <fill_fcb+0x164>
    32ac:	720b           	moveq #11,%d1
    32ae:	4240           	clrw %d0
    32b0:	0c1c 003f      	cmpib #63,%a4@+
    32b4:	6602           	bnes 32b8 <fill_fcb+0x18c>
    32b6:	5240           	addqw #1,%d0
    32b8:	5341           	subqw #1,%d1
    32ba:	66f4           	bnes 32b0 <fill_fcb+0x184>
    32bc:	6002           	bras 32c0 <fill_fcb+0x194>
    32be:	4240           	clrw %d0
    32c0:	4cee 3c3c ffe0 	moveml %fp@(-32),%d2-%d5/%a2-%a5
    32c6:	4e5e           	unlk %fp
    32c8:	4e75           	rts

000032ca <decode>:
    32ca:	4e56 0000      	linkw %fp,#0
    32ce:	48e7 3030      	moveml %d2-%d3/%a2-%a3,%sp@-
    32d2:	262e 0008      	movel %fp@(8),%d3
    32d6:	45f9 ff00 1304 	lea ff001304 <cmd_tbl>,%a2
    32dc:	4282           	clrl %d2
    32de:	47fa fa3e      	lea %pc@(2d1e <strcmp>),%a3
    32e2:	2f12           	movel %a2@,%sp@-
    32e4:	2f03           	movel %d3,%sp@-
    32e6:	4e93           	jsr %a3@
    32e8:	508f           	addql #8,%sp
    32ea:	4a40           	tstw %d0
    32ec:	6614           	bnes 3302 <decode+0x38>
    32ee:	2002           	movel %d2,%d0
    32f0:	d080           	addl %d0,%d0
    32f2:	e78a           	lsll #3,%d2
    32f4:	9480           	subl %d0,%d2
    32f6:	3030 29b0 ff00 	movew @(ffffffffff001308,%d2:l),%d0
    32fc:	1308 
    32fe:	6000 00bc      	braw 33bc <decode+0xf2>
    3302:	5282           	addql #1,%d2
    3304:	5c8a           	addql #6,%a2
    3306:	7007           	moveq #7,%d0
    3308:	b082           	cmpl %d2,%d0
    330a:	66d6           	bnes 32e2 <decode+0x18>
    330c:	45f9 ff00 2cbf 	lea ff002cbf <parm>,%a2
    3312:	204a           	moveal %a2,%a0
    3314:	4242           	clrw %d2
    3316:	6008           	bras 3320 <decode+0x56>
    3318:	5242           	addqw #1,%d2
    331a:	0c42 0019      	cmpiw #25,%d2
    331e:	6734           	beqs 3354 <decode+0x8a>
    3320:	0c18 003a      	cmpib #58,%a0@+
    3324:	66f2           	bnes 3318 <decode+0x4e>
    3326:	0c42 0001      	cmpiw #1,%d2
    332a:	6628           	bnes 3354 <decode+0x8a>
    332c:	1039 ff00 2cbf 	moveb ff002cbf <parm>,%d0
    3332:	0600 ffbf      	addib #-65,%d0
    3336:	4a39 ff00 2cc1 	tstb ff002cc1 <parm+0x2>
    333c:	660e           	bnes 334c <decode+0x82>
    333e:	4a39 ff00 2cd9 	tstb ff002cd9 <parm+0x1a>
    3344:	6606           	bnes 334c <decode+0x82>
    3346:	0c00 000f      	cmpib #15,%d0
    334a:	6366           	blss 33b2 <decode+0xe8>
    334c:	0c00 000f      	cmpib #15,%d0
    3350:	6264           	bhis 33b6 <decode+0xec>
    3352:	6010           	bras 3364 <decode+0x9a>
    3354:	4280           	clrl %d0
    3356:	3002           	movew %d2,%d0
    3358:	0c30 003a 09b0 	cmpib #58,@(ffffffffff002cbf,%d0:l)
    335e:	ff00 2cbf 
    3362:	6752           	beqs 33b6 <decode+0xec>
    3364:	4879 ff00 2c9b 	pea ff002c9b <cmdfcb>
    336a:	42a7           	clrl %sp@-
    336c:	4eba fdbe      	jsr %pc@(312c <fill_fcb>)
    3370:	508f           	addql #8,%sp
    3372:	4a40           	tstw %d0
    3374:	6640           	bnes 33b6 <decode+0xec>
    3376:	0c42 0001      	cmpiw #1,%d2
    337a:	6606           	bnes 3382 <decode+0xb8>
    337c:	103c 0002      	moveb #2,%d0
    3380:	6002           	bras 3384 <decode+0xba>
    3382:	4240           	clrw %d0
    3384:	0280 0000 ffff 	andil #65535,%d0
    338a:	4870 09b0 ff00 	pea @(ffffffffff002cbf,%d0:l)
    3390:	2cbf 
    3392:	4eba fd38      	jsr %pc@(30cc <delim>)
    3396:	588f           	addql #4,%sp
    3398:	4a40           	tstw %d0
    339a:	661a           	bnes 33b6 <decode+0xec>
    339c:	600e           	bras 33ac <decode+0xe2>
    339e:	0c00 001f      	cmpib #31,%d0
    33a2:	6f12           	bles 33b6 <decode+0xec>
    33a4:	b5fc ff00 2cd8 	cmpal #-16765736,%a2
    33aa:	670e           	beqs 33ba <decode+0xf0>
    33ac:	101a           	moveb %a2@+,%d0
    33ae:	66ee           	bnes 339e <decode+0xd4>
    33b0:	6008           	bras 33ba <decode+0xf0>
    33b2:	7005           	moveq #5,%d0
    33b4:	6006           	bras 33bc <decode+0xf2>
    33b6:	70ff           	moveq #-1,%d0
    33b8:	6002           	bras 33bc <decode+0xf2>
    33ba:	7008           	moveq #8,%d0
    33bc:	4cee 0c0c fff0 	moveml %fp@(-16),%d2-%d3/%a2-%a3
    33c2:	4e5e           	unlk %fp
    33c4:	4e75           	rts

000033c6 <too_many>:
    33c6:	4e56 0000      	linkw %fp,#0
    33ca:	4a39 ff00 2cf3 	tstb ff002cf3 <parm+0x34>
    33d0:	6724           	beqs 33f6 <too_many+0x30>
    33d2:	4879 ff00 11fd 	pea ff0011fd <msg13>
    33d8:	4878 0009      	pea 9 <printstr>
    33dc:	4eb9 0000 4898 	jsr 4898 <bdos>
    33e2:	42a7           	clrl %sp@-
    33e4:	4879 ff00 2cf3 	pea ff002cf3 <parm+0x34>
    33ea:	4eba fa44      	jsr %pc@(2e30 <echo_cmd>)
    33ee:	4fef 0010      	lea %sp@(16),%sp
    33f2:	7001           	moveq #1,%d0
    33f4:	6002           	bras 33f8 <too_many+0x32>
    33f6:	4240           	clrw %d0
    33f8:	4e5e           	unlk %fp
    33fa:	4e75           	rts

000033fc <find_colon>:
    33fc:	4e56 0000      	linkw %fp,#0
    3400:	4240           	clrw %d0
    3402:	6002           	bras 3406 <find_colon+0xa>
    3404:	5240           	addqw #1,%d0
    3406:	4281           	clrl %d1
    3408:	3200           	movew %d0,%d1
    340a:	1230 19b0 ff00 	moveb @(ffffffffff002cd9,%d1:l),%d1
    3410:	2cd9 
    3412:	6706           	beqs 341a <find_colon+0x1e>
    3414:	0c01 003a      	cmpib #58,%d1
    3418:	66ea           	bnes 3404 <find_colon+0x8>
    341a:	4e5e           	unlk %fp
    341c:	4e75           	rts

0000341e <chk_colon>:
    341e:	4e56 0000      	linkw %fp,#0
    3422:	302e 000a      	movew %fp@(10),%d0
    3426:	4281           	clrl %d1
    3428:	3200           	movew %d0,%d1
    342a:	0c30 003a 19b0 	cmpib #58,@(ffffffffff002cd9,%d1:l)
    3430:	ff00 2cd9 
    3434:	662a           	bnes 3460 <chk_colon+0x42>
    3436:	0c40 0001      	cmpiw #1,%d0
    343a:	6612           	bnes 344e <chk_colon+0x30>
    343c:	1039 ff00 2cd9 	moveb ff002cd9 <parm+0x1a>,%d0
    3442:	0c00 0040      	cmpib #64,%d0
    3446:	6f06           	bles 344e <chk_colon+0x30>
    3448:	0c00 0050      	cmpib #80,%d0
    344c:	6f12           	bles 3460 <chk_colon+0x42>
    344e:	42a7           	clrl %sp@-
    3450:	4879 ff00 2cd9 	pea ff002cd9 <parm+0x1a>
    3456:	4eba f9d8      	jsr %pc@(2e30 <echo_cmd>)
    345a:	508f           	addql #8,%sp
    345c:	4240           	clrw %d0
    345e:	6002           	bras 3462 <chk_colon+0x44>
    3460:	7001           	moveq #1,%d0
    3462:	4e5e           	unlk %fp
    3464:	4e75           	rts

00003466 <dir_cmd>:
    3466:	4e56 0000      	linkw %fp,#0
    346a:	48e7 3f3c      	moveml %d2-%d7/%a2-%a5,%sp@-
    346e:	3c2e 000a      	movew %fp@(10),%d6
    3472:	4eba ff52      	jsr %pc@(33c6 <too_many>)
    3476:	4a40           	tstw %d0
    3478:	6600 01b0      	bnew 362a <dir_cmd+0x1c4>
    347c:	4eba ff7e      	jsr %pc@(33fc <find_colon>)
    3480:	3f00           	movew %d0,%sp@-
    3482:	4267           	clrw %sp@-
    3484:	4eba ff98      	jsr %pc@(341e <chk_colon>)
    3488:	588f           	addql #4,%sp
    348a:	4a40           	tstw %d0
    348c:	6700 019c      	beqw 362a <dir_cmd+0x1c4>
    3490:	4879 ff00 2c9b 	pea ff002c9b <cmdfcb>
    3496:	4878 0001      	pea 1 <_text_start+0x1>
    349a:	4eba fc90      	jsr %pc@(312c <fill_fcb>)
    349e:	1e39 ff00 2c9b 	moveb ff002c9b <cmdfcb>,%d7
    34a4:	4887           	extw %d7
    34a6:	0647 0040      	addiw #64,%d7
    34aa:	4879 ff00 2c9b 	pea ff002c9b <cmdfcb>
    34b0:	4878 0011      	pea 11 <Stack+0x1>
    34b4:	45f9 0000 4898 	lea 4898 <bdos>,%a2
    34ba:	4e92           	jsr %a2@
    34bc:	3600           	movew %d0,%d3
    34be:	4fef 0010      	lea %sp@(16),%sp
    34c2:	0c40 00ff      	cmpiw #255,%d0
    34c6:	660e           	bnes 34d6 <dir_cmd+0x70>
    34c8:	4879 ff00 1295 	pea ff001295 <msg6>
    34ce:	4878 0009      	pea 9 <printstr>
    34d2:	4e92           	jsr %a2@
    34d4:	508f           	addql #8,%sp
    34d6:	3403           	movew %d3,%d2
    34d8:	eb4a           	lslw #5,%d2
    34da:	5242           	addqw #1,%d2
    34dc:	97cb           	subal %a3,%a3
    34de:	4244           	clrw %d4
    34e0:	4205           	clrb %d5
    34e2:	45f9 0000 4898 	lea 4898 <bdos>,%a2
    34e8:	49fa f7f2      	lea %pc@(2cdc <cr_lf>),%a4
    34ec:	0287 0000 ffff 	andil #65535,%d7
    34f2:	6000 0106      	braw 35fa <dir_cmd+0x194>
    34f6:	0282 0000 ffff 	andil #65535,%d2
    34fc:	4a46           	tstw %d6
    34fe:	670c           	beqs 350c <dir_cmd+0xa6>
    3500:	4a30 29b0 ff00 	tstb @(ffffffffff002b9a,%d2:l)
    3506:	2b9a 
    3508:	6c22           	bges 352c <dir_cmd+0xc6>
    350a:	600a           	bras 3516 <dir_cmd+0xb0>
    350c:	4a30 29b0 ff00 	tstb @(ffffffffff002b9a,%d2:l)
    3512:	2b9a 
    3514:	6d16           	blts 352c <dir_cmd+0xc6>
    3516:	4a05           	tstb %d5
    3518:	6702           	beqs 351c <dir_cmd+0xb6>
    351a:	4e94           	jsr %a4@
    351c:	4a44           	tstw %d4
    351e:	6624           	bnes 3544 <dir_cmd+0xde>
    3520:	2f07           	movel %d7,%sp@-
    3522:	4878 0002      	pea 2 <buserr>
    3526:	4e92           	jsr %a2@
    3528:	508f           	addql #8,%sp
    352a:	6018           	bras 3544 <dir_cmd+0xde>
    352c:	4878 0012      	pea 12 <bgetseg>
    3530:	4e92           	jsr %a2@
    3532:	3600           	movew %d0,%d3
    3534:	3400           	movew %d0,%d2
    3536:	eb4a           	lslw #5,%d2
    3538:	5242           	addqw #1,%d2
    353a:	588f           	addql #4,%sp
    353c:	367c 0001      	moveaw #1,%a3
    3540:	6000 00b8      	braw 35fa <dir_cmd+0x194>
    3544:	eb4b           	lslw #5,%d3
    3546:	4878 003a      	pea 3a <biosf+0x8>
    354a:	4878 0002      	pea 2 <buserr>
    354e:	4e92           	jsr %a2@
    3550:	4878 0020      	pea 20 <chuser>
    3554:	4878 0002      	pea 2 <buserr>
    3558:	4e92           	jsr %a2@
    355a:	4fef 0010      	lea %sp@(16),%sp
    355e:	7401           	moveq #1,%d2
    3560:	6012           	bras 3574 <dir_cmd+0x10e>
    3562:	0c42 0009      	cmpiw #9,%d2
    3566:	660c           	bnes 3574 <dir_cmd+0x10e>
    3568:	4878 0020      	pea 20 <chuser>
    356c:	4878 0002      	pea 2 <buserr>
    3570:	4e92           	jsr %a2@
    3572:	508f           	addql #8,%sp
    3574:	3002           	movew %d2,%d0
    3576:	d043           	addw %d3,%d0
    3578:	0280 0000 ffff 	andil #65535,%d0
    357e:	1030 09b0 ff00 	moveb @(ffffffffff002b91,%d0:l),%d0
    3584:	2b91 
    3586:	49c0           	extbl %d0
    3588:	727f           	moveq #127,%d1
    358a:	c280           	andl %d0,%d1
    358c:	2f01           	movel %d1,%sp@-
    358e:	4878 0002      	pea 2 <buserr>
    3592:	4bf9 0000 4898 	lea 4898 <bdos>,%a5
    3598:	4e92           	jsr %a2@
    359a:	5242           	addqw #1,%d2
    359c:	508f           	addql #8,%sp
    359e:	0c42 000c      	cmpiw #12,%d2
    35a2:	66be           	bnes 3562 <dir_cmd+0xfc>
    35a4:	4878 0020      	pea 20 <chuser>
    35a8:	4878 0002      	pea 2 <buserr>
    35ac:	4e95           	jsr %a5@
    35ae:	4878 0012      	pea 12 <bgetseg>
    35b2:	4e95           	jsr %a5@
    35b4:	3600           	movew %d0,%d3
    35b6:	4fef 000c      	lea %sp@(12),%sp
    35ba:	0c40 00ff      	cmpiw #255,%d0
    35be:	6742           	beqs 3602 <dir_cmd+0x19c>
    35c0:	5244           	addqw #1,%d4
    35c2:	3400           	movew %d0,%d2
    35c4:	eb4a           	lslw #5,%d2
    35c6:	5242           	addqw #1,%d2
    35c8:	0c44 0005      	cmpiw #5,%d4
    35cc:	6624           	bnes 35f2 <dir_cmd+0x18c>
    35ce:	4280           	clrl %d0
    35d0:	3002           	movew %d2,%d0
    35d2:	4a46           	tstw %d6
    35d4:	670e           	beqs 35e4 <dir_cmd+0x17e>
    35d6:	4a30 09b0 ff00 	tstb @(ffffffffff002b9a,%d0:l)
    35dc:	2b9a 
    35de:	6d0e           	blts 35ee <dir_cmd+0x188>
    35e0:	4204           	clrb %d4
    35e2:	6014           	bras 35f8 <dir_cmd+0x192>
    35e4:	4a30 09b0 ff00 	tstb @(ffffffffff002b9a,%d0:l)
    35ea:	2b9a 
    35ec:	6d08           	blts 35f6 <dir_cmd+0x190>
    35ee:	4e94           	jsr %a4@
    35f0:	4244           	clrw %d4
    35f2:	4205           	clrb %d5
    35f4:	6004           	bras 35fa <dir_cmd+0x194>
    35f6:	4244           	clrw %d4
    35f8:	7a01           	moveq #1,%d5
    35fa:	0c43 00ff      	cmpiw #255,%d3
    35fe:	6600 fef6      	bnew 34f6 <dir_cmd+0x90>
    3602:	300b           	movew %a3,%d0
    3604:	6724           	beqs 362a <dir_cmd+0x1c4>
    3606:	4eba f6d4      	jsr %pc@(2cdc <cr_lf>)
    360a:	41f9 0000 4898 	lea 4898 <bdos>,%a0
    3610:	4a46           	tstw %d6
    3612:	6708           	beqs 361c <dir_cmd+0x1b6>
    3614:	4879 ff00 12e9 	pea ff0012e9 <msg>
    361a:	6006           	bras 3622 <dir_cmd+0x1bc>
    361c:	4879 ff00 12ed 	pea ff0012ed <msg+0x4>
    3622:	4878 0009      	pea 9 <printstr>
    3626:	4e90           	jsr %a0@
    3628:	508f           	addql #8,%sp
    362a:	4cee 3cfc ffd8 	moveml %fp@(-40),%d2-%d7/%a2-%a5
    3630:	4e5e           	unlk %fp
    3632:	4e75           	rts

00003634 <type_cmd>:
    3634:	4e56 0000      	linkw %fp,#0
    3638:	48e7 2030      	moveml %d2/%a2-%a3,%sp@-
    363c:	4a39 ff00 2cd9 	tstb ff002cd9 <parm+0x1a>
    3642:	6622           	bnes 3666 <type_cmd+0x32>
    3644:	4879 ff00 12d7 	pea ff0012d7 <msg2>
    364a:	4878 0009      	pea 9 <printstr>
    364e:	4eb9 0000 4898 	jsr 4898 <bdos>
    3654:	4878 0019      	pea 19 <spurious+0x1>
    3658:	4879 ff00 2cd9 	pea ff002cd9 <parm+0x1a>
    365e:	4eba f8ac      	jsr %pc@(2f0c <get_cmd>)
    3662:	4fef 0010      	lea %sp@(16),%sp
    3666:	4eba fd5e      	jsr %pc@(33c6 <too_many>)
    366a:	4a40           	tstw %d0
    366c:	6600 00c2      	bnew 3730 <type_cmd+0xfc>
    3670:	4eba fd8a      	jsr %pc@(33fc <find_colon>)
    3674:	3f00           	movew %d0,%sp@-
    3676:	4267           	clrw %sp@-
    3678:	4eba fda4      	jsr %pc@(341e <chk_colon>)
    367c:	588f           	addql #4,%sp
    367e:	4a40           	tstw %d0
    3680:	6700 00ae      	beqw 3730 <type_cmd+0xfc>
    3684:	4879 ff00 2c9b 	pea ff002c9b <cmdfcb>
    368a:	4878 0001      	pea 1 <_text_start+0x1>
    368e:	4eba fa9c      	jsr %pc@(312c <fill_fcb>)
    3692:	3400           	movew %d0,%d2
    3694:	508f           	addql #8,%sp
    3696:	6670           	bnes 3708 <type_cmd+0xd4>
    3698:	4a39 ff00 2cd9 	tstb ff002cd9 <parm+0x1a>
    369e:	6768           	beqs 3708 <type_cmd+0xd4>
    36a0:	4879 ff00 2c9b 	pea ff002c9b <cmdfcb>
    36a6:	4878 000f      	pea f <BasPage+0x3>
    36aa:	47f9 0000 4898 	lea 4898 <bdos>,%a3
    36b0:	4e93           	jsr %a3@
    36b2:	508f           	addql #8,%sp
    36b4:	0c40 0003      	cmpiw #3,%d0
    36b8:	631e           	blss 36d8 <type_cmd+0xa4>
    36ba:	604c           	bras 3708 <type_cmd+0xd4>
    36bc:	101a           	moveb %a2@+,%d0
    36be:	0c00 001a      	cmpib #26,%d0
    36c2:	6714           	beqs 36d8 <type_cmd+0xa4>
    36c4:	49c0           	extbl %d0
    36c6:	2f00           	movel %d0,%sp@-
    36c8:	4878 0002      	pea 2 <buserr>
    36cc:	4e93           	jsr %a3@
    36ce:	508f           	addql #8,%sp
    36d0:	b5fc ff00 2c11 	cmpal #-16765935,%a2
    36d6:	66e4           	bnes 36bc <type_cmd+0x88>
    36d8:	4879 ff00 2c9b 	pea ff002c9b <cmdfcb>
    36de:	4878 0014      	pea 14 <bgetseg+0x2>
    36e2:	4e93           	jsr %a3@
    36e4:	508f           	addql #8,%sp
    36e6:	4a40           	tstw %d0
    36e8:	6608           	bnes 36f2 <type_cmd+0xbe>
    36ea:	45f9 ff00 2b91 	lea ff002b91 <dma>,%a2
    36f0:	60ca           	bras 36bc <type_cmd+0x88>
    36f2:	1039 ff00 2c9b 	moveb ff002c9b <cmdfcb>,%d0
    36f8:	49c0           	extbl %d0
    36fa:	2f00           	movel %d0,%sp@-
    36fc:	4878 0025      	pea 25 <trap3+0x2>
    3700:	4eb9 0000 4898 	jsr 4898 <bdos>
    3706:	6026           	bras 372e <type_cmd+0xfa>
    3708:	4a39 ff00 2cd9 	tstb ff002cd9 <parm+0x1a>
    370e:	6720           	beqs 3730 <type_cmd+0xfc>
    3710:	41f9 0000 4898 	lea 4898 <bdos>,%a0
    3716:	4a42           	tstw %d2
    3718:	6708           	beqs 3722 <type_cmd+0xee>
    371a:	4879 ff00 127e 	pea ff00127e <msg7>
    3720:	6006           	bras 3728 <type_cmd+0xf4>
    3722:	4879 ff00 1295 	pea ff001295 <msg6>
    3728:	4878 0009      	pea 9 <printstr>
    372c:	4e90           	jsr %a0@
    372e:	508f           	addql #8,%sp
    3730:	4cee 0c04 fff4 	moveml %fp@(-12),%d2/%a2-%a3
    3736:	4e5e           	unlk %fp
    3738:	4e75           	rts

0000373a <ren_cmd>:
    373a:	4e56 ffdc      	linkw %fp,#-36
    373e:	48e7 3c30      	moveml %d2-%d5/%a2-%a3,%sp@-
    3742:	4a39 ff00 2cd9 	tstb ff002cd9 <parm+0x1a>
    3748:	665c           	bnes 37a6 <ren_cmd+0x6c>
    374a:	4879 ff00 12c5 	pea ff0012c5 <msg3>
    3750:	4878 0009      	pea 9 <printstr>
    3754:	47f9 0000 4898 	lea 4898 <bdos>,%a3
    375a:	4e93           	jsr %a3@
    375c:	4878 0019      	pea 19 <spurious+0x1>
    3760:	4879 ff00 2d0d 	pea ff002d0d <parm+0x4e>
    3766:	45fa f7a4      	lea %pc@(2f0c <get_cmd>),%a2
    376a:	4e92           	jsr %a2@
    376c:	4fef 0010      	lea %sp@(16),%sp
    3770:	4a39 ff00 2d0d 	tstb ff002d0d <parm+0x4e>
    3776:	6700 0262      	beqw 39da <ren_cmd+0x2a0>
    377a:	4879 ff00 12b3 	pea ff0012b3 <msg4>
    3780:	4878 0009      	pea 9 <printstr>
    3784:	4e93           	jsr %a3@
    3786:	4878 0019      	pea 19 <spurious+0x1>
    378a:	4879 ff00 2cd9 	pea ff002cd9 <parm+0x1a>
    3790:	4e92           	jsr %a2@
    3792:	13fc 003d ff00 	moveb #61,ff002cf3 <parm+0x34>
    3798:	2cf3 
    379a:	4fef 0010      	lea %sp@(16),%sp
    379e:	6000 0090      	braw 3830 <ren_cmd+0xf6>
    37a2:	5240           	addqw #1,%d0
    37a4:	6002           	bras 37a8 <ren_cmd+0x6e>
    37a6:	4240           	clrw %d0
    37a8:	4281           	clrl %d1
    37aa:	3200           	movew %d0,%d1
    37ac:	41f9 ff00 2cbf 	lea ff002cbf <parm>,%a0
    37b2:	1430 19b0 ff00 	moveb @(ffffffffff002cd9,%d1:l),%d2
    37b8:	2cd9 
    37ba:	0c02 003d      	cmpib #61,%d2
    37be:	6606           	bnes 37c6 <ren_cmd+0x8c>
    37c0:	4a40           	tstw %d0
    37c2:	6770           	beqs 3834 <ren_cmd+0xfa>
    37c4:	6010           	bras 37d6 <ren_cmd+0x9c>
    37c6:	4a02           	tstb %d2
    37c8:	66d8           	bnes 37a2 <ren_cmd+0x68>
    37ca:	0c39 003d ff00 	cmpib #61,ff002cf3 <parm+0x34>
    37d0:	2cf3 
    37d2:	6660           	bnes 3834 <ren_cmd+0xfa>
    37d4:	6014           	bras 37ea <ren_cmd+0xb0>
    37d6:	4a30 19b0 ff00 	tstb @(ffffffffff002cda,%d1:l)
    37dc:	2cda 
    37de:	6754           	beqs 3834 <ren_cmd+0xfa>
    37e0:	4a39 ff00 2cf3 	tstb ff002cf3 <parm+0x34>
    37e6:	664c           	bnes 3834 <ren_cmd+0xfa>
    37e8:	6016           	bras 3800 <ren_cmd+0xc6>
    37ea:	4a39 ff00 2cf4 	tstb ff002cf4 <parm+0x35>
    37f0:	6642           	bnes 3834 <ren_cmd+0xfa>
    37f2:	4a39 ff00 2d0d 	tstb ff002d0d <parm+0x4e>
    37f8:	57c2           	seq %d2
    37fa:	4882           	extw %d2
    37fc:	4442           	negw %d2
    37fe:	6036           	bras 3836 <ren_cmd+0xfc>
    3800:	4230 181a      	clrb %a0@(000000000000001a,%d1:l)
    3804:	5240           	addqw #1,%d0
    3806:	4281           	clrl %d1
    3808:	3400           	movew %d0,%d2
    380a:	d441           	addw %d1,%d2
    380c:	0282 0000 ffff 	andil #65535,%d2
    3812:	1430 29b0 ff00 	moveb @(ffffffffff002cd9,%d2:l),%d2
    3818:	2cd9 
    381a:	4283           	clrl %d3
    381c:	3601           	movew %d1,%d3
    381e:	1182 384e      	moveb %d2,%a0@(000000000000004e,%d3:l)
    3822:	5281           	addql #1,%d1
    3824:	4a02           	tstb %d2
    3826:	66e0           	bnes 3808 <ren_cmd+0xce>
    3828:	13fc 003d ff00 	moveb #61,ff002cf3 <parm+0x34>
    382e:	2cf3 
    3830:	4242           	clrw %d2
    3832:	6002           	bras 3836 <ren_cmd+0xfc>
    3834:	7401           	moveq #1,%d2
    3836:	7001           	moveq #1,%d0
    3838:	6070           	bras 38aa <ren_cmd+0x170>
    383a:	5241           	addqw #1,%d1
    383c:	4284           	clrl %d4
    383e:	3801           	movew %d1,%d4
    3840:	2044           	moveal %d4,%a0
    3842:	1830 5930 ff00 	moveb %a0@(ffffffffff002cbf,%d5:l),%d4
    3848:	2cbf 
    384a:	0c04 003a      	cmpib #58,%d4
    384e:	6704           	beqs 3854 <ren_cmd+0x11a>
    3850:	4a04           	tstb %d4
    3852:	66e6           	bnes 383a <ren_cmd+0x100>
    3854:	0c41 0001      	cmpiw #1,%d1
    3858:	6308           	blss 3862 <ren_cmd+0x128>
    385a:	0c04 003a      	cmpib #58,%d4
    385e:	6602           	bnes 3862 <ren_cmd+0x128>
    3860:	7401           	moveq #1,%d2
    3862:	d683           	addl %d3,%d3
    3864:	1230 39b0 ff00 	moveb @(ffffffffff002cbf,%d3:l),%d1
    386a:	2cbf 
    386c:	41f9 ff00 1174 	lea ff001174 <del>,%a0
    3872:	b218           	cmpb %a0@+,%d1
    3874:	6624           	bnes 389a <ren_cmd+0x160>
    3876:	42a7           	clrl %sp@-
    3878:	4280           	clrl %d0
    387a:	3009           	movew %a1,%d0
    387c:	2400           	movel %d0,%d2
    387e:	e58a           	lsll #2,%d2
    3880:	2200           	movel %d0,%d1
    3882:	e989           	lsll #4,%d1
    3884:	9282           	subl %d2,%d1
    3886:	d081           	addl %d1,%d0
    3888:	d080           	addl %d0,%d0
    388a:	4870 09b0 ff00 	pea @(ffffffffff002cbf,%d0:l)
    3890:	2cbf 
    3892:	4eba f59c      	jsr %pc@(2e30 <echo_cmd>)
    3896:	6000 0140      	braw 39d8 <ren_cmd+0x29e>
    389a:	b1fc ff00 1184 	cmpal #-16772732,%a0
    38a0:	66d0           	bnes 3872 <ren_cmd+0x138>
    38a2:	5480           	addql #2,%d0
    38a4:	7205           	moveq #5,%d1
    38a6:	b280           	cmpl %d0,%d1
    38a8:	6718           	beqs 38c2 <ren_cmd+0x188>
    38aa:	3240           	moveaw %d0,%a1
    38ac:	4241           	clrw %d1
    38ae:	2800           	movel %d0,%d4
    38b0:	e58c           	lsll #2,%d4
    38b2:	2600           	movel %d0,%d3
    38b4:	e98b           	lsll #4,%d3
    38b6:	9684           	subl %d4,%d3
    38b8:	d680           	addl %d0,%d3
    38ba:	2a03           	movel %d3,%d5
    38bc:	da85           	addl %d5,%d5
    38be:	6000 ff7c      	braw 383c <ren_cmd+0x102>
    38c2:	4a42           	tstw %d2
    38c4:	6600 0102      	bnew 39c8 <ren_cmd+0x28e>
    38c8:	4a39 ff00 2cd9 	tstb ff002cd9 <parm+0x1a>
    38ce:	6700 010a      	beqw 39da <ren_cmd+0x2a0>
    38d2:	4a39 ff00 2d0d 	tstb ff002d0d <parm+0x4e>
    38d8:	6700 0100      	beqw 39da <ren_cmd+0x2a0>
    38dc:	486e ffdc      	pea %fp@(-36)
    38e0:	4878 0001      	pea 1 <_text_start+0x1>
    38e4:	45fa f846      	lea %pc@(312c <fill_fcb>),%a2
    38e8:	4e92           	jsr %a2@
    38ea:	3600           	movew %d0,%d3
    38ec:	4879 ff00 2c9b 	pea ff002c9b <cmdfcb>
    38f2:	4878 0003      	pea 3 <buserr+0x1>
    38f6:	4e92           	jsr %a2@
    38f8:	4fef 0010      	lea %sp@(16),%sp
    38fc:	4a43           	tstw %d3
    38fe:	6600 00c0      	bnew 39c0 <ren_cmd+0x286>
    3902:	4a40           	tstw %d0
    3904:	6600 00ba      	bnew 39c0 <ren_cmd+0x286>
    3908:	122e ffdc      	moveb %fp@(-36),%d1
    390c:	1039 ff00 2c9b 	moveb ff002c9b <cmdfcb>,%d0
    3912:	b001           	cmpb %d1,%d0
    3914:	672e           	beqs 3944 <ren_cmd+0x20a>
    3916:	0c39 003a ff00 	cmpib #58,ff002cda <parm+0x1b>
    391c:	2cda 
    391e:	6612           	bnes 3932 <ren_cmd+0x1f8>
    3920:	0c39 003a ff00 	cmpib #58,ff002d0e <parm+0x4f>
    3926:	2d0e 
    3928:	6718           	beqs 3942 <ren_cmd+0x208>
    392a:	13c1 ff00 2c9b 	moveb %d1,ff002c9b <cmdfcb>
    3930:	6012           	bras 3944 <ren_cmd+0x20a>
    3932:	0c39 003a ff00 	cmpib #58,ff002d0e <parm+0x4f>
    3938:	2d0e 
    393a:	6606           	bnes 3942 <ren_cmd+0x208>
    393c:	1d40 ffdc      	moveb %d0,%fp@(-36)
    3940:	6002           	bras 3944 <ren_cmd+0x20a>
    3942:	7401           	moveq #1,%d2
    3944:	102e ffdc      	moveb %fp@(-36),%d0
    3948:	5300           	subqb #1,%d0
    394a:	0c00 000f      	cmpib #15,%d0
    394e:	6204           	bhis 3954 <ren_cmd+0x21a>
    3950:	4a42           	tstw %d2
    3952:	6712           	beqs 3966 <ren_cmd+0x22c>
    3954:	7401           	moveq #1,%d2
    3956:	41ee ffdc      	lea %fp@(-36),%a0
    395a:	43f9 ff00 2cab 	lea ff002cab <cmdfcb+0x10>,%a1
    3960:	45ee fff0      	lea %fp@(-16),%a2
    3964:	6020           	bras 3986 <ren_cmd+0x24c>
    3966:	486e ffdc      	pea %fp@(-36)
    396a:	4878 0011      	pea 11 <Stack+0x1>
    396e:	45f9 0000 4898 	lea 4898 <bdos>,%a2
    3974:	4e92           	jsr %a2@
    3976:	508f           	addql #8,%sp
    3978:	0c40 00ff      	cmpiw #255,%d0
    397c:	67d8           	beqs 3956 <ren_cmd+0x21c>
    397e:	4879 ff00 129e 	pea ff00129e <msg5>
    3984:	6032           	bras 39b8 <ren_cmd+0x27e>
    3986:	12d8           	moveb %a0@+,%a1@+
    3988:	b5c8           	cmpal %a0,%a2
    398a:	66fa           	bnes 3986 <ren_cmd+0x24c>
    398c:	0c39 000f ff00 	cmpib #15,ff002c9b <cmdfcb>
    3992:	2c9b 
    3994:	6232           	bhis 39c8 <ren_cmd+0x28e>
    3996:	4a42           	tstw %d2
    3998:	662e           	bnes 39c8 <ren_cmd+0x28e>
    399a:	4879 ff00 2c9b 	pea ff002c9b <cmdfcb>
    39a0:	4878 0017      	pea 17 <bsetexc+0x1>
    39a4:	45f9 0000 4898 	lea 4898 <bdos>,%a2
    39aa:	4e92           	jsr %a2@
    39ac:	508f           	addql #8,%sp
    39ae:	4a40           	tstw %d0
    39b0:	6728           	beqs 39da <ren_cmd+0x2a0>
    39b2:	4879 ff00 1295 	pea ff001295 <msg6>
    39b8:	4878 0009      	pea 9 <printstr>
    39bc:	4e92           	jsr %a2@
    39be:	6018           	bras 39d8 <ren_cmd+0x29e>
    39c0:	4879 ff00 127e 	pea ff00127e <msg7>
    39c6:	6006           	bras 39ce <ren_cmd+0x294>
    39c8:	4879 ff00 1261 	pea ff001261 <msg8>
    39ce:	4878 0009      	pea 9 <printstr>
    39d2:	4eb9 0000 4898 	jsr 4898 <bdos>
    39d8:	508f           	addql #8,%sp
    39da:	4cee 0c3c ffc4 	moveml %fp@(-60),%d2-%d5/%a2-%a3
    39e0:	4e5e           	unlk %fp
    39e2:	4e75           	rts

000039e4 <era_cmd>:
    39e4:	4e56 0000      	linkw %fp,#0
    39e8:	2f0a           	movel %a2,%sp@-
    39ea:	4a39 ff00 2cd9 	tstb ff002cd9 <parm+0x1a>
    39f0:	6622           	bnes 3a14 <era_cmd+0x30>
    39f2:	4879 ff00 12d7 	pea ff0012d7 <msg2>
    39f8:	4878 0009      	pea 9 <printstr>
    39fc:	4eb9 0000 4898 	jsr 4898 <bdos>
    3a02:	4878 0019      	pea 19 <spurious+0x1>
    3a06:	4879 ff00 2cd9 	pea ff002cd9 <parm+0x1a>
    3a0c:	4eba f4fe      	jsr %pc@(2f0c <get_cmd>)
    3a10:	4fef 0010      	lea %sp@(16),%sp
    3a14:	4a39 ff00 2cd9 	tstb ff002cd9 <parm+0x1a>
    3a1a:	6700 00d8      	beqw 3af4 <era_cmd+0x110>
    3a1e:	4eba f9a6      	jsr %pc@(33c6 <too_many>)
    3a22:	4a40           	tstw %d0
    3a24:	6600 00ce      	bnew 3af4 <era_cmd+0x110>
    3a28:	4eba f9d2      	jsr %pc@(33fc <find_colon>)
    3a2c:	3f00           	movew %d0,%sp@-
    3a2e:	4267           	clrw %sp@-
    3a30:	4eba f9ec      	jsr %pc@(341e <chk_colon>)
    3a34:	588f           	addql #4,%sp
    3a36:	4a40           	tstw %d0
    3a38:	6700 00ba      	beqw 3af4 <era_cmd+0x110>
    3a3c:	0c39 003a ff00 	cmpib #58,ff002cda <parm+0x1b>
    3a42:	2cda 
    3a44:	6618           	bnes 3a5e <era_cmd+0x7a>
    3a46:	4a39 ff00 2cdb 	tstb ff002cdb <parm+0x1c>
    3a4c:	6610           	bnes 3a5e <era_cmd+0x7a>
    3a4e:	42a7           	clrl %sp@-
    3a50:	4879 ff00 2cd9 	pea ff002cd9 <parm+0x1a>
    3a56:	4eba f3d8      	jsr %pc@(2e30 <echo_cmd>)
    3a5a:	6000 0096      	braw 3af2 <era_cmd+0x10e>
    3a5e:	4879 ff00 2c9b 	pea ff002c9b <cmdfcb>
    3a64:	4878 0001      	pea 1 <_text_start+0x1>
    3a68:	4eba f6c2      	jsr %pc@(312c <fill_fcb>)
    3a6c:	508f           	addql #8,%sp
    3a6e:	4a40           	tstw %d0
    3a70:	6752           	beqs 3ac4 <era_cmd+0xe0>
    3a72:	4a39 ff00 140a 	tstb ff00140a <submit>
    3a78:	664a           	bnes 3ac4 <era_cmd+0xe0>
    3a7a:	4879 ff00 1251 	pea ff001251 <msg9>
    3a80:	4878 0009      	pea 9 <printstr>
    3a84:	45f9 0000 4898 	lea 4898 <bdos>,%a2
    3a8a:	4e92           	jsr %a2@
    3a8c:	42a7           	clrl %sp@-
    3a8e:	4878 0001      	pea 1 <_text_start+0x1>
    3a92:	4e92           	jsr %a2@
    3a94:	1200           	moveb %d0,%d1
    3a96:	0601 ff9f      	addib #-97,%d1
    3a9a:	4fef 0010      	lea %sp@(16),%sp
    3a9e:	0c01 0019      	cmpib #25,%d1
    3aa2:	6204           	bhis 3aa8 <era_cmd+0xc4>
    3aa4:	0600 ffe0      	addib #-32,%d0
    3aa8:	13c0 ff00 2cf3 	moveb %d0,ff002cf3 <parm+0x34>
    3aae:	4eba f22c      	jsr %pc@(2cdc <cr_lf>)
    3ab2:	1039 ff00 2cf3 	moveb ff002cf3 <parm+0x34>,%d0
    3ab8:	0c00 004e      	cmpib #78,%d0
    3abc:	6706           	beqs 3ac4 <era_cmd+0xe0>
    3abe:	0c00 0059      	cmpib #89,%d0
    3ac2:	6630           	bnes 3af4 <era_cmd+0x110>
    3ac4:	0c39 004e ff00 	cmpib #78,ff002cf3 <parm+0x34>
    3aca:	2cf3 
    3acc:	6726           	beqs 3af4 <era_cmd+0x110>
    3ace:	4879 ff00 2c9b 	pea ff002c9b <cmdfcb>
    3ad4:	4878 0013      	pea 13 <bgetseg+0x1>
    3ad8:	45f9 0000 4898 	lea 4898 <bdos>,%a2
    3ade:	4e92           	jsr %a2@
    3ae0:	508f           	addql #8,%sp
    3ae2:	4a40           	tstw %d0
    3ae4:	670e           	beqs 3af4 <era_cmd+0x110>
    3ae6:	4879 ff00 1295 	pea ff001295 <msg6>
    3aec:	4878 0009      	pea 9 <printstr>
    3af0:	4e92           	jsr %a2@
    3af2:	508f           	addql #8,%sp
    3af4:	246e fffc      	moveal %fp@(-4),%a2
    3af8:	4e5e           	unlk %fp
    3afa:	4e75           	rts

00003afc <user_cmd>:
    3afc:	4e56 0000      	linkw %fp,#0
    3b00:	2f02           	movel %d2,%sp@-
    3b02:	4a39 ff00 2cd9 	tstb ff002cd9 <parm+0x1a>
    3b08:	6622           	bnes 3b2c <user_cmd+0x30>
    3b0a:	4879 ff00 1240 	pea ff001240 <msg10>
    3b10:	4878 0009      	pea 9 <printstr>
    3b14:	4eb9 0000 4898 	jsr 4898 <bdos>
    3b1a:	4878 0019      	pea 19 <spurious+0x1>
    3b1e:	4879 ff00 2cd9 	pea ff002cd9 <parm+0x1a>
    3b24:	4eba f3e6      	jsr %pc@(2f0c <get_cmd>)
    3b28:	4fef 0010      	lea %sp@(16),%sp
    3b2c:	4a39 ff00 2cd9 	tstb ff002cd9 <parm+0x1a>
    3b32:	6758           	beqs 3b8c <user_cmd+0x90>
    3b34:	4eba f890      	jsr %pc@(33c6 <too_many>)
    3b38:	4a40           	tstw %d0
    3b3a:	6650           	bnes 3b8c <user_cmd+0x90>
    3b3c:	1039 ff00 2cd9 	moveb ff002cd9 <parm+0x1a>,%d0
    3b42:	1200           	moveb %d0,%d1
    3b44:	0601 ffd0      	addib #-48,%d1
    3b48:	0c01 0009      	cmpib #9,%d1
    3b4c:	6242           	bhis 3b90 <user_cmd+0x94>
    3b4e:	4880           	extw %d0
    3b50:	0640 ffd0      	addiw #-48,%d0
    3b54:	1439 ff00 2cda 	moveb ff002cda <parm+0x1b>,%d2
    3b5a:	6718           	beqs 3b74 <user_cmd+0x78>
    3b5c:	3200           	movew %d0,%d1
    3b5e:	e349           	lslw #1,%d1
    3b60:	e748           	lslw #3,%d0
    3b62:	d240           	addw %d0,%d1
    3b64:	1002           	moveb %d2,%d0
    3b66:	4880           	extw %d0
    3b68:	0640 ffd0      	addiw #-48,%d0
    3b6c:	d041           	addw %d1,%d0
    3b6e:	0c40 000f      	cmpiw #15,%d0
    3b72:	621c           	bhis 3b90 <user_cmd+0x94>
    3b74:	4a39 ff00 2cdb 	tstb ff002cdb <parm+0x1c>
    3b7a:	6614           	bnes 3b90 <user_cmd+0x94>
    3b7c:	3f00           	movew %d0,%sp@-
    3b7e:	4267           	clrw %sp@-
    3b80:	4878 0020      	pea 20 <chuser>
    3b84:	4eb9 0000 4898 	jsr 4898 <bdos>
    3b8a:	508f           	addql #8,%sp
    3b8c:	7001           	moveq #1,%d0
    3b8e:	6002           	bras 3b92 <user_cmd+0x96>
    3b90:	4240           	clrw %d0
    3b92:	242e fffc      	movel %fp@(-4),%d2
    3b96:	4e5e           	unlk %fp
    3b98:	4e75           	rts

00003b9a <cmd_file>:
    3b9a:	4e56 0000      	linkw %fp,#0
    3b9e:	48e7 3f3c      	moveml %d2-%d7/%a2-%a5,%sp@-
    3ba2:	342e 000a      	movew %fp@(10),%d2
    3ba6:	4239 ff00 2d2a 	clrb ff002d2a <dirflag>
    3bac:	13fc 0001 ff00 	moveb #1,ff002b90 <load_try>
    3bb2:	2b90 
    3bb4:	4878 00ff      	pea ff <trap3+0x73>
    3bb8:	4878 0020      	pea 20 <chuser>
    3bbc:	45f9 0000 4898 	lea 4898 <bdos>,%a2
    3bc2:	4e92           	jsr %a2@
    3bc4:	33c0 ff00 2d28 	movew %d0,ff002d28 <user>
    3bca:	42a7           	clrl %sp@-
    3bcc:	4878 0019      	pea 19 <spurious+0x1>
    3bd0:	4e92           	jsr %a2@
    3bd2:	33c0 ff00 2b8e 	movew %d0,ff002b8e <cur_disk>
    3bd8:	4879 ff00 2c9b 	pea ff002c9b <cmdfcb>
    3bde:	0c42 000a      	cmpiw #10,%d2
    3be2:	56c0           	sne %d0
    3be4:	49c0           	extbl %d0
    3be6:	4480           	negl %d0
    3be8:	2f00           	movel %d0,%sp@-
    3bea:	4eba f540      	jsr %pc@(312c <fill_fcb>)
    3bee:	4fef 0018      	lea %sp@(24),%sp
    3bf2:	4a40           	tstw %d0
    3bf4:	6710           	beqs 3c06 <cmd_file+0x6c>
    3bf6:	4879 ff00 127e 	pea ff00127e <msg7>
    3bfc:	4878 0009      	pea 9 <printstr>
    3c00:	4e92           	jsr %a2@
    3c02:	6000 019a      	braw 3d9e <cmd_file+0x204>
    3c06:	2c39 ff00 1494 	movel ff001494 <load_tbl>,%d6
    3c0c:	0c39 0020 ff00 	cmpib #32,ff002ca4 <cmdfcb+0x9>
    3c12:	2ca4 
    3c14:	671a           	beqs 3c30 <cmd_file+0x96>
    3c16:	45f9 ff00 1494 	lea ff001494 <load_tbl>,%a2
    3c1c:	4203           	clrb %d3
    3c1e:	6000 0202      	braw 3e22 <cmd_file+0x288>
    3c22:	4228 0009      	clrb %a0@(9)
    3c26:	4228 0008      	clrb %a0@(8)
    3c2a:	41e8 000a      	lea %a0@(10),%a0
    3c2e:	6006           	bras 3c36 <cmd_file+0x9c>
    3c30:	41f9 ff00 1494 	lea ff001494 <load_tbl>,%a0
    3c36:	2250           	moveal %a0@,%a1
    3c38:	4a11           	tstb %a1@
    3c3a:	66e6           	bnes 3c22 <cmd_file+0x88>
    3c3c:	1039 ff00 2c9b 	moveb ff002c9b <cmdfcb>,%d0
    3c42:	49c0           	extbl %d0
    3c44:	2040           	moveal %d0,%a0
    3c46:	4868 ffff      	pea %a0@(-1)
    3c4a:	4878 000e      	pea e <BasPage+0x2>
    3c4e:	45f9 0000 4898 	lea 4898 <bdos>,%a2
    3c54:	4e92           	jsr %a2@
    3c56:	13fc 003f ff00 	moveb #63,ff002c9b <cmdfcb>
    3c5c:	2c9b 
    3c5e:	4239 ff00 2ca7 	clrb ff002ca7 <cmdfcb+0xc>
    3c64:	4879 ff00 2c9b 	pea ff002c9b <cmdfcb>
    3c6a:	4878 0011      	pea 11 <Stack+0x1>
    3c6e:	4e92           	jsr %a2@
    3c70:	4fef 0010      	lea %sp@(16),%sp
    3c74:	4203           	clrb %d3
    3c76:	4204           	clrb %d4
    3c78:	2a3c 0000 2d08 	movel #11528,%d5
    3c7e:	49fa f09e      	lea %pc@(2d1e <strcmp>),%a4
    3c82:	2a4a           	moveal %a2,%a5
    3c84:	6000 00ce      	braw 3d54 <cmd_file+0x1ba>
    3c88:	eb48           	lslw #5,%d0
    3c8a:	4281           	clrl %d1
    3c8c:	3200           	movew %d0,%d1
    3c8e:	2641           	moveal %d1,%a3
    3c90:	1233 0170 ff00 	moveb %a3@(ffffffffff002b91),%d1
    3c96:	2b91 
    3c98:	6710           	beqs 3caa <cmd_file+0x110>
    3c9a:	49c1           	extbl %d1
    3c9c:	4287           	clrl %d7
    3c9e:	3e39 ff00 2d28 	movew ff002d28 <user>,%d7
    3ca4:	be81           	cmpl %d1,%d7
    3ca6:	6600 00a4      	bnew 3d4c <cmd_file+0x1b2>
    3caa:	7209           	moveq #9,%d1
    3cac:	4287           	clrl %d7
    3cae:	3e01           	movew %d1,%d7
    3cb0:	2047           	moveal %d7,%a0
    3cb2:	0233 007f 8930 	andib #127,%a3@(ffffffffff002b91,%a0:l)
    3cb8:	ff00 2b91 
    3cbc:	5241           	addqw #1,%d1
    3cbe:	0c41 000c      	cmpiw #12,%d1
    3cc2:	66e8           	bnes 3cac <cmd_file+0x112>
    3cc4:	41f9 ff00 2b91 	lea ff002b91 <dma>,%a0
    3cca:	4230 b80c      	clrb %a0@(000000000000000c,%a3:l)
    3cce:	45f9 ff00 1494 	lea ff001494 <load_tbl>,%a2
    3cd4:	0280 0000 ffff 	andil #65535,%d0
    3cda:	2e00           	movel %d0,%d7
    3cdc:	0687 ff00 2b92 	addil #-16766062,%d7
    3ce2:	6062           	bras 3d46 <cmd_file+0x1ac>
    3ce4:	4879 ff00 2ca4 	pea ff002ca4 <cmdfcb+0x9>
    3cea:	2f08           	movel %a0,%sp@-
    3cec:	2045           	moveal %d5,%a0
    3cee:	4e90           	jsr %a0@
    3cf0:	2f07           	movel %d7,%sp@-
    3cf2:	4879 ff00 2c9c 	pea ff002c9c <cmdfcb+0x1>
    3cf8:	4e94           	jsr %a4@
    3cfa:	4fef 0010      	lea %sp@(16),%sp
    3cfe:	4a40           	tstw %d0
    3d00:	6640           	bnes 3d42 <cmd_file+0x1a8>
    3d02:	1233 0170 ff00 	moveb %a3@(ffffffffff002b91),%d1
    3d08:	2b91 
    3d0a:	49c1           	extbl %d1
    3d0c:	4280           	clrl %d0
    3d0e:	3039 ff00 2d28 	movew ff002d28 <user>,%d0
    3d14:	b081           	cmpl %d1,%d0
    3d16:	6608           	bnes 3d20 <cmd_file+0x186>
    3d18:	157c 0001 0008 	moveb #1,%a2@(8)
    3d1e:	6006           	bras 3d26 <cmd_file+0x18c>
    3d20:	157c 0001 0009 	moveb #1,%a2@(9)
    3d26:	7601           	moveq #1,%d3
    3d28:	0c42 000a      	cmpiw #10,%d2
    3d2c:	6614           	bnes 3d42 <cmd_file+0x1a8>
    3d2e:	2f06           	movel %d6,%sp@-
    3d30:	2f12           	movel %a2@,%sp@-
    3d32:	4e94           	jsr %a4@
    3d34:	508f           	addql #8,%sp
    3d36:	4a40           	tstw %d0
    3d38:	6608           	bnes 3d42 <cmd_file+0x1a8>
    3d3a:	4a2a 0008      	tstb %a2@(8)
    3d3e:	6702           	beqs 3d42 <cmd_file+0x1a8>
    3d40:	7801           	moveq #1,%d4
    3d42:	45ea 000a      	lea %a2@(10),%a2
    3d46:	2052           	moveal %a2@,%a0
    3d48:	4a10           	tstb %a0@
    3d4a:	6698           	bnes 3ce4 <cmd_file+0x14a>
    3d4c:	4878 0012      	pea 12 <bgetseg>
    3d50:	4e95           	jsr %a5@
    3d52:	588f           	addql #4,%sp
    3d54:	0c40 00ff      	cmpiw #255,%d0
    3d58:	6706           	beqs 3d60 <cmd_file+0x1c6>
    3d5a:	4a04           	tstb %d4
    3d5c:	6700 ff2a      	beqw 3c88 <cmd_file+0xee>
    3d60:	4a03           	tstb %d3
    3d62:	6642           	bnes 3da6 <cmd_file+0x20c>
    3d64:	0c42 0007      	cmpiw #7,%d2
    3d68:	6612           	bnes 3d7c <cmd_file+0x1e2>
    3d6a:	4879 ff00 122b 	pea ff00122b <msg11>
    3d70:	4878 0009      	pea 9 <printstr>
    3d74:	4eb9 0000 4898 	jsr 4898 <bdos>
    3d7a:	508f           	addql #8,%sp
    3d7c:	13fc 0001 ff00 	moveb #1,ff002d2a <dirflag>
    3d82:	2d2a 
    3d84:	4239 ff00 2b90 	clrb ff002b90 <load_try>
    3d8a:	4280           	clrl %d0
    3d8c:	3039 ff00 2b8e 	movew ff002b8e <cur_disk>,%d0
    3d92:	2f00           	movel %d0,%sp@-
    3d94:	4878 000e      	pea e <BasPage+0x2>
    3d98:	4eb9 0000 4898 	jsr 4898 <bdos>
    3d9e:	508f           	addql #8,%sp
    3da0:	4240           	clrw %d0
    3da2:	6000 025a      	braw 3ffe <cmd_file+0x464>
    3da6:	41fa f384      	lea %pc@(312c <fill_fcb>),%a0
    3daa:	0c42 000a      	cmpiw #10,%d2
    3dae:	660a           	bnes 3dba <cmd_file+0x220>
    3db0:	4879 ff00 2c9b 	pea ff002c9b <cmdfcb>
    3db6:	42a7           	clrl %sp@-
    3db8:	600a           	bras 3dc4 <cmd_file+0x22a>
    3dba:	4879 ff00 2c9b 	pea ff002c9b <cmdfcb>
    3dc0:	4878 0001      	pea 1 <_text_start+0x1>
    3dc4:	4e90           	jsr %a0@
    3dc6:	508f           	addql #8,%sp
    3dc8:	45f9 ff00 1494 	lea ff001494 <load_tbl>,%a2
    3dce:	47fa ef4e      	lea %pc@(2d1e <strcmp>),%a3
    3dd2:	6024           	bras 3df8 <cmd_file+0x25e>
    3dd4:	ebea 0010 0008 	bfexts %a2@(8),0,16,%d0
    3dda:	4a40           	tstw %d0
    3ddc:	6716           	beqs 3df4 <cmd_file+0x25a>
    3dde:	0c42 000a      	cmpiw #10,%d2
    3de2:	671c           	beqs 3e00 <cmd_file+0x266>
    3de4:	4879 0000 72d1 	pea 72d1 <__FUNCTION__.884+0x141>
    3dea:	2f08           	movel %a0,%sp@-
    3dec:	4e93           	jsr %a3@
    3dee:	508f           	addql #8,%sp
    3df0:	4a40           	tstw %d0
    3df2:	670c           	beqs 3e00 <cmd_file+0x266>
    3df4:	45ea 000a      	lea %a2@(10),%a2
    3df8:	2052           	moveal %a2@,%a0
    3dfa:	4a10           	tstb %a0@
    3dfc:	66d6           	bnes 3dd4 <cmd_file+0x23a>
    3dfe:	6022           	bras 3e22 <cmd_file+0x288>
    3e00:	4a2a 0008      	tstb %a2@(8)
    3e04:	660e           	bnes 3e14 <cmd_file+0x27a>
    3e06:	42a7           	clrl %sp@-
    3e08:	4878 0020      	pea 20 <chuser>
    3e0c:	4eb9 0000 4898 	jsr 4898 <bdos>
    3e12:	508f           	addql #8,%sp
    3e14:	4879 ff00 2ca4 	pea ff002ca4 <cmdfcb+0x9>
    3e1a:	2f12           	movel %a2@,%sp@-
    3e1c:	4eba eeea      	jsr %pc@(2d08 <cpy>)
    3e20:	508f           	addql #8,%sp
    3e22:	4280           	clrl %d0
    3e24:	3039 ff00 2b8e 	movew ff002b8e <cur_disk>,%d0
    3e2a:	2f00           	movel %d0,%sp@-
    3e2c:	4878 000e      	pea e <BasPage+0x2>
    3e30:	47f9 0000 4898 	lea 4898 <bdos>,%a3
    3e36:	4e93           	jsr %a3@
    3e38:	588f           	addql #4,%sp
    3e3a:	2ebc ff00 2c9b 	movel #-16765797,%sp@
    3e40:	4878 000f      	pea f <BasPage+0x3>
    3e44:	4e93           	jsr %a3@
    3e46:	508f           	addql #8,%sp
    3e48:	0c40 0003      	cmpiw #3,%d0
    3e4c:	6200 00b6      	bhiw 3f04 <cmd_file+0x36a>
    3e50:	1839 ff00 2ca4 	moveb ff002ca4 <cmdfcb+0x9>,%d4
    3e56:	0204 007f      	andib #127,%d4
    3e5a:	13c4 ff00 2ca4 	moveb %d4,ff002ca4 <cmdfcb+0x9>
    3e60:	1239 ff00 2ca5 	moveb ff002ca5 <cmdfcb+0xa>,%d1
    3e66:	0201 007f      	andib #127,%d1
    3e6a:	13c1 ff00 2ca5 	moveb %d1,ff002ca5 <cmdfcb+0xa>
    3e70:	1039 ff00 2ca6 	moveb ff002ca6 <cmdfcb+0xb>,%d0
    3e76:	0200 007f      	andib #127,%d0
    3e7a:	13c0 ff00 2ca6 	moveb %d0,ff002ca6 <cmdfcb+0xb>
    3e80:	0c04 0053      	cmpib #83,%d4
    3e84:	6674           	bnes 3efa <cmd_file+0x360>
    3e86:	0c01 0055      	cmpib #85,%d1
    3e8a:	666e           	bnes 3efa <cmd_file+0x360>
    3e8c:	0c00 0042      	cmpib #66,%d0
    3e90:	6668           	bnes 3efa <cmd_file+0x360>
    3e92:	4878 00ff      	pea ff <trap3+0x73>
    3e96:	4878 0020      	pea 20 <chuser>
    3e9a:	4eb9 0000 4898 	jsr 4898 <bdos>
    3ea0:	33c0 ff00 2c96 	movew %d0,ff002c96 <sub_user>
    3ea6:	508f           	addql #8,%sp
    3ea8:	4a39 ff00 140a 	tstb ff00140a <submit>
    3eae:	670a           	beqs 3eba <cmd_file+0x320>
    3eb0:	13fc 0001 ff00 	moveb #1,ff002c9a <chain_sub>
    3eb6:	2c9a 
    3eb8:	6008           	bras 3ec2 <cmd_file+0x328>
    3eba:	13fc 0001 ff00 	moveb #1,ff002d55 <first_sub>
    3ec0:	2d55 
    3ec2:	41f9 ff00 2c9b 	lea ff002c9b <cmdfcb>,%a0
    3ec8:	43f9 ff00 2d31 	lea ff002d31 <subfcb>,%a1
    3ece:	12d8           	moveb %a0@+,%a1@+
    3ed0:	b1fc ff00 2cbf 	cmpal #-16765761,%a0
    3ed6:	66f6           	bnes 3ece <cmd_file+0x334>
    3ed8:	0c42 000a      	cmpiw #10,%d2
    3edc:	6606           	bnes 3ee4 <cmd_file+0x34a>
    3ede:	4239 ff00 2d30 	clrb ff002d30 <subprompt>
    3ee4:	13fc 0001 ff00 	moveb #1,ff00140a <submit>
    3eea:	140a 
    3eec:	4239 ff00 2d58 	clrb ff002d58 <end_of_file>
    3ef2:	7401           	moveq #1,%d2
    3ef4:	4203           	clrb %d3
    3ef6:	6000 00d0      	braw 3fc8 <cmd_file+0x42e>
    3efa:	0c42 0007      	cmpiw #7,%d2
    3efe:	6600 0108      	bnew 4008 <cmd_file+0x46e>
    3f02:	601a           	bras 3f1e <cmd_file+0x384>
    3f04:	4878 00ff      	pea ff <trap3+0x73>
    3f08:	4878 0020      	pea 20 <chuser>
    3f0c:	4e93           	jsr %a3@
    3f0e:	508f           	addql #8,%sp
    3f10:	4a40           	tstw %d0
    3f12:	670a           	beqs 3f1e <cmd_file+0x384>
    3f14:	42a7           	clrl %sp@-
    3f16:	4878 0020      	pea 20 <chuser>
    3f1a:	6000 ff1a      	braw 3e36 <cmd_file+0x29c>
    3f1e:	4203           	clrb %d3
    3f20:	6000 008c      	braw 3fae <cmd_file+0x414>
    3f24:	4879 ff00 2ca4 	pea ff002ca4 <cmdfcb+0x9>
    3f2a:	2f08           	movel %a0,%sp@-
    3f2c:	4e93           	jsr %a3@
    3f2e:	508f           	addql #8,%sp
    3f30:	4a40           	tstw %d0
    3f32:	6716           	beqs 3f4a <cmd_file+0x3b0>
    3f34:	45ea 000a      	lea %a2@(10),%a2
    3f38:	600a           	bras 3f44 <cmd_file+0x3aa>
    3f3a:	45f9 ff00 1494 	lea ff001494 <load_tbl>,%a2
    3f40:	47fa eddc      	lea %pc@(2d1e <strcmp>),%a3
    3f44:	2052           	moveal %a2@,%a0
    3f46:	4a10           	tstb %a0@
    3f48:	66da           	bnes 3f24 <cmd_file+0x38a>
    3f4a:	2252           	moveal %a2@,%a1
    3f4c:	41f9 0000 2bdc 	lea 2bdc <load68k>,%a0
    3f52:	4a11           	tstb %a1@
    3f54:	6704           	beqs 3f5a <cmd_file+0x3c0>
    3f56:	206a 0004      	moveal %a2@(4),%a0
    3f5a:	2f39 ff00 2d5a 	movel ff002d5a <glb_index>,%sp@-
    3f60:	4e90           	jsr %a0@
    3f62:	588f           	addql #4,%sp
    3f64:	0c40 0002      	cmpiw #2,%d0
    3f68:	671a           	beqs 3f84 <cmd_file+0x3ea>
    3f6a:	0c40 0003      	cmpiw #3,%d0
    3f6e:	671c           	beqs 3f8c <cmd_file+0x3f2>
    3f70:	41f9 0000 4898 	lea 4898 <bdos>,%a0
    3f76:	0c40 0001      	cmpiw #1,%d0
    3f7a:	6622           	bnes 3f9e <cmd_file+0x404>
    3f7c:	4879 ff00 11d5 	pea ff0011d5 <lderr1>
    3f82:	6020           	bras 3fa4 <cmd_file+0x40a>
    3f84:	4879 ff00 11b9 	pea ff0011b9 <lderr2>
    3f8a:	6006           	bras 3f92 <cmd_file+0x3f8>
    3f8c:	4879 ff00 1198 	pea ff001198 <lderr3>
    3f92:	4878 0009      	pea 9 <printstr>
    3f96:	4eb9 0000 4898 	jsr 4898 <bdos>
    3f9c:	600c           	bras 3faa <cmd_file+0x410>
    3f9e:	4879 ff00 1184 	pea ff001184 <lderror>
    3fa4:	4878 0009      	pea 9 <printstr>
    3fa8:	4e90           	jsr %a0@
    3faa:	508f           	addql #8,%sp
    3fac:	7601           	moveq #1,%d3
    3fae:	0c42 0007      	cmpiw #7,%d2
    3fb2:	6612           	bnes 3fc6 <cmd_file+0x42c>
    3fb4:	4879 ff00 122b 	pea ff00122b <msg11>
    3fba:	4878 0009      	pea 9 <printstr>
    3fbe:	4eb9 0000 4898 	jsr 4898 <bdos>
    3fc4:	508f           	addql #8,%sp
    3fc6:	4202           	clrb %d2
    3fc8:	4280           	clrl %d0
    3fca:	3039 ff00 2d28 	movew ff002d28 <user>,%d0
    3fd0:	2f00           	movel %d0,%sp@-
    3fd2:	4878 0020      	pea 20 <chuser>
    3fd6:	4eb9 0000 4898 	jsr 4898 <bdos>
    3fdc:	13fc 0001 ff00 	moveb #1,ff002d2a <dirflag>
    3fe2:	2d2a 
    3fe4:	4239 ff00 2b90 	clrb ff002b90 <load_try>
    3fea:	4239 ff00 140c 	clrb ff00140c <morecmds>
    3ff0:	508f           	addql #8,%sp
    3ff2:	4a02           	tstb %d2
    3ff4:	6604           	bnes 3ffa <cmd_file+0x460>
    3ff6:	49c3           	extbl %d3
    3ff8:	6002           	bras 3ffc <cmd_file+0x462>
    3ffa:	7601           	moveq #1,%d3
    3ffc:	3003           	movew %d3,%d0
    3ffe:	4cee 3cfc ffd8 	moveml %fp@(-40),%d2-%d7/%a2-%a5
    4004:	4e5e           	unlk %fp
    4006:	4e75           	rts
    4008:	2f39 ff00 2d5a 	movel ff002d5a <glb_index>,%sp@-
    400e:	4eba ee92      	jsr %pc@(2ea2 <check_cmd>)
    4012:	588f           	addql #4,%sp
    4014:	4a03           	tstb %d3
    4016:	6700 ff22      	beqw 3f3a <cmd_file+0x3a0>
    401a:	6000 ff2e      	braw 3f4a <cmd_file+0x3b0>

0000401e <sub_read>:
    401e:	4e56 0000      	linkw %fp,#0
    4022:	4879 ff00 2d31 	pea ff002d31 <subfcb>
    4028:	4878 0014      	pea 14 <bgetseg+0x2>
    402c:	4eb9 0000 4898 	jsr 4898 <bdos>
    4032:	508f           	addql #8,%sp
    4034:	4a40           	tstw %d0
    4036:	670c           	beqs 4044 <sub_read+0x26>
    4038:	13fc 0001 ff00 	moveb #1,ff002d58 <end_of_file>
    403e:	2d58 
    4040:	4240           	clrw %d0
    4042:	6002           	bras 4046 <sub_read+0x28>
    4044:	7001           	moveq #1,%d0
    4046:	4e5e           	unlk %fp
    4048:	4e75           	rts

0000404a <dollar>:
    404a:	4e56 0000      	linkw %fp,#0
    404e:	48e7 3c30      	moveml %d2-%d5/%a2-%a3,%sp@-
    4052:	246e 0010      	moveal %fp@(16),%a2
    4056:	342e 000a      	movew %fp@(10),%d2
    405a:	3a2e 000e      	movew %fp@(14),%d5
    405e:	3639 ff00 2c98 	movew ff002c98 <sub_index>,%d3
    4064:	0c42 007f      	cmpiw #127,%d2
    4068:	630c           	blss 4076 <dollar+0x2c>
    406a:	4eba ffb2      	jsr %pc@(401e <sub_read>)
    406e:	4242           	clrw %d2
    4070:	4a40           	tstw %d0
    4072:	6700 0104      	beqw 4178 <dollar+0x12e>
    4076:	4284           	clrl %d4
    4078:	3802           	movew %d2,%d4
    407a:	1030 49b0 ff00 	moveb @(ffffffffff002d5e,%d4:l),%d0
    4080:	2d5e 
    4082:	1200           	moveb %d0,%d1
    4084:	0601 ffd0      	addib #-48,%d1
    4088:	0c01 0009      	cmpib #9,%d1
    408c:	6200 00a2      	bhiw 4130 <dollar+0xe6>
    4090:	4880           	extw %d0
    4092:	3200           	movew %d0,%d1
    4094:	0641 ffd0      	addiw #-48,%d1
    4098:	0c12 0053      	cmpib #83,%a2@
    409c:	6632           	bnes 40d0 <dollar+0x86>
    409e:	0c2a 0055 0001 	cmpib #85,%a2@(1)
    40a4:	662a           	bnes 40d0 <dollar+0x86>
    40a6:	0c2a 0042 0002 	cmpib #66,%a2@(2)
    40ac:	6622           	bnes 40d0 <dollar+0x86>
    40ae:	0c2a 004d 0003 	cmpib #77,%a2@(3)
    40b4:	661a           	bnes 40d0 <dollar+0x86>
    40b6:	0c2a 0049 0004 	cmpib #73,%a2@(4)
    40bc:	6612           	bnes 40d0 <dollar+0x86>
    40be:	0c2a 0054 0005 	cmpib #84,%a2@(5)
    40c4:	660a           	bnes 40d0 <dollar+0x86>
    40c6:	0c2a 0020 0006 	cmpib #32,%a2@(6)
    40cc:	6602           	bnes 40d0 <dollar+0x86>
    40ce:	5241           	addqw #1,%d1
    40d0:	7001           	moveq #1,%d0
    40d2:	6016           	bras 40ea <dollar+0xa0>
    40d4:	2448           	moveal %a0,%a2
    40d6:	1810           	moveb %a0@,%d4
    40d8:	5288           	addql #1,%a0
    40da:	0c04 0020      	cmpib #32,%d4
    40de:	6604           	bnes 40e4 <dollar+0x9a>
    40e0:	2448           	moveal %a0,%a2
    40e2:	6004           	bras 40e8 <dollar+0x9e>
    40e4:	4a04           	tstb %d4
    40e6:	66ec           	bnes 40d4 <dollar+0x8a>
    40e8:	5240           	addqw #1,%d0
    40ea:	b240           	cmpw %d0,%d1
    40ec:	6408           	bccs 40f6 <dollar+0xac>
    40ee:	47f9 0000 4898 	lea 4898 <bdos>,%a3
    40f4:	6026           	bras 411c <dollar+0xd2>
    40f6:	204a           	moveal %a2,%a0
    40f8:	60da           	bras 40d4 <dollar+0x8a>
    40fa:	0c45 0001      	cmpiw #1,%d5
    40fe:	6610           	bnes 4110 <dollar+0xc6>
    4100:	4281           	clrl %d1
    4102:	3203           	movew %d3,%d1
    4104:	1180 19b0 ff00 	moveb %d0,@(ffffffffff002c14,%d1:l)
    410a:	2c14 
    410c:	5243           	addqw #1,%d3
    410e:	600c           	bras 411c <dollar+0xd2>
    4110:	49c0           	extbl %d0
    4112:	2f00           	movel %d0,%sp@-
    4114:	4878 0002      	pea 2 <buserr>
    4118:	4e93           	jsr %a3@
    411a:	508f           	addql #8,%sp
    411c:	101a           	moveb %a2@+,%d0
    411e:	0c00 0020      	cmpib #32,%d0
    4122:	6740           	beqs 4164 <dollar+0x11a>
    4124:	4a00           	tstb %d0
    4126:	673c           	beqs 4164 <dollar+0x11a>
    4128:	0c43 007f      	cmpiw #127,%d3
    412c:	63cc           	blss 40fa <dollar+0xb0>
    412e:	6034           	bras 4164 <dollar+0x11a>
    4130:	0c45 0001      	cmpiw #1,%d5
    4134:	6612           	bnes 4148 <dollar+0xfe>
    4136:	4280           	clrl %d0
    4138:	3003           	movew %d3,%d0
    413a:	11bc 0024 09b0 	moveb #36,@(ffffffffff002c14,%d0:l)
    4140:	ff00 2c14 
    4144:	5243           	addqw #1,%d3
    4146:	6010           	bras 4158 <dollar+0x10e>
    4148:	4878 0024      	pea 24 <trap3+0x1>
    414c:	4878 0002      	pea 2 <buserr>
    4150:	4eb9 0000 4898 	jsr 4898 <bdos>
    4156:	508f           	addql #8,%sp
    4158:	0c30 0024 49b0 	cmpib #36,@(ffffffffff002d5e,%d4:l)
    415e:	ff00 2d5e 
    4162:	6602           	bnes 4166 <dollar+0x11c>
    4164:	5242           	addqw #1,%d2
    4166:	33c3 ff00 2c98 	movew %d3,ff002c98 <sub_index>
    416c:	0c42 0080      	cmpiw #128,%d2
    4170:	6606           	bnes 4178 <dollar+0x12e>
    4172:	4eba feaa      	jsr %pc@(401e <sub_read>)
    4176:	4202           	clrb %d2
    4178:	3002           	movew %d2,%d0
    417a:	4cee 0c3c ffe8 	moveml %fp@(-24),%d2-%d5/%a2-%a3
    4180:	4e5e           	unlk %fp
    4182:	4e75           	rts

00004184 <comments>:
    4184:	4e56 0000      	linkw %fp,#0
    4188:	48e7 3038      	moveml %d2-%d3/%a2-%a4,%sp@-
    418c:	262e 000c      	movel %fp@(12),%d3
    4190:	342e 000a      	movew %fp@(10),%d2
    4194:	4eba ec02      	jsr %pc@(2d98 <prompt>)
    4198:	49fa fe84      	lea %pc@(401e <sub_read>),%a4
    419c:	47f9 0000 4898 	lea 4898 <bdos>,%a3
    41a2:	45fa fea6      	lea %pc@(404a <dollar>),%a2
    41a6:	6026           	bras 41ce <comments+0x4a>
    41a8:	5242           	addqw #1,%d2
    41aa:	0c00 0024      	cmpib #36,%d0
    41ae:	6612           	bnes 41c2 <comments+0x3e>
    41b0:	2f03           	movel %d3,%sp@-
    41b2:	42a7           	clrl %sp@-
    41b4:	3f02           	movew %d2,%sp@-
    41b6:	4267           	clrw %sp@-
    41b8:	4e92           	jsr %a2@
    41ba:	3400           	movew %d0,%d2
    41bc:	4fef 000c      	lea %sp@(12),%sp
    41c0:	600c           	bras 41ce <comments+0x4a>
    41c2:	49c0           	extbl %d0
    41c4:	2f00           	movel %d0,%sp@-
    41c6:	4878 0002      	pea 2 <buserr>
    41ca:	4e93           	jsr %a3@
    41cc:	508f           	addql #8,%sp
    41ce:	0c42 007f      	cmpiw #127,%d2
    41d2:	621a           	bhis 41ee <comments+0x6a>
    41d4:	4280           	clrl %d0
    41d6:	3002           	movew %d2,%d0
    41d8:	1030 09b0 ff00 	moveb @(ffffffffff002d5e,%d0:l),%d0
    41de:	2d5e 
    41e0:	0c00 001a      	cmpib #26,%d0
    41e4:	672a           	beqs 4210 <comments+0x8c>
    41e6:	0c00 000d      	cmpib #13,%d0
    41ea:	66bc           	bnes 41a8 <comments+0x24>
    41ec:	6022           	bras 4210 <comments+0x8c>
    41ee:	0c42 0080      	cmpiw #128,%d2
    41f2:	661c           	bnes 4210 <comments+0x8c>
    41f4:	1039 ff00 2dde 	moveb ff002dde <save_sub>,%d0
    41fa:	0c00 001a      	cmpib #26,%d0
    41fe:	6710           	beqs 4210 <comments+0x8c>
    4200:	0c00 000d      	cmpib #13,%d0
    4204:	670a           	beqs 4210 <comments+0x8c>
    4206:	4e94           	jsr %a4@
    4208:	4a40           	tstw %d0
    420a:	672c           	beqs 4238 <comments+0xb4>
    420c:	4202           	clrb %d2
    420e:	60c4           	bras 41d4 <comments+0x50>
    4210:	4280           	clrl %d0
    4212:	3002           	movew %d2,%d0
    4214:	0c30 000d 09b0 	cmpib #13,@(ffffffffff002d5e,%d0:l)
    421a:	ff00 2d5e 
    421e:	660e           	bnes 422e <comments+0xaa>
    4220:	5442           	addqw #2,%d2
    4222:	0c42 007f      	cmpiw #127,%d2
    4226:	6312           	blss 423a <comments+0xb6>
    4228:	4eba fdf4      	jsr %pc@(401e <sub_read>)
    422c:	600a           	bras 4238 <comments+0xb4>
    422e:	13fc 0001 ff00 	moveb #1,ff002d58 <end_of_file>
    4234:	2d58 
    4236:	6002           	bras 423a <comments+0xb6>
    4238:	4242           	clrw %d2
    423a:	3002           	movew %d2,%d0
    423c:	4cee 1c0c ffec 	moveml %fp@(-20),%d2-%d3/%a2-%a4
    4242:	4e5e           	unlk %fp
    4244:	4e75           	rts

00004246 <translate>:
    4246:	4e56 0000      	linkw %fp,#0
    424a:	48e7 3838      	moveml %d2-%d4/%a2-%a4,%sp@-
    424e:	262e 0008      	movel %fp@(8),%d3
    4252:	3039 ff00 2c98 	movew ff002c98 <sub_index>,%d0
    4258:	4242           	clrw %d2
    425a:	45fa fdc2      	lea %pc@(401e <sub_read>),%a2
    425e:	49fa fdea      	lea %pc@(404a <dollar>),%a4
    4262:	47fa ff20      	lea %pc@(4184 <comments>),%a3
    4266:	6000 00c0      	braw 4328 <translate+0xe2>
    426a:	0c01 001a      	cmpib #26,%d1
    426e:	6700 0094      	beqw 4304 <translate+0xbe>
    4272:	6e12           	bgts 4286 <translate+0x40>
    4274:	0c01 0009      	cmpib #9,%d1
    4278:	672c           	beqs 42a6 <translate+0x60>
    427a:	0c01 000a      	cmpib #10,%d1
    427e:	6600 008e      	bnew 430e <translate+0xc8>
    4282:	6000 0098      	braw 431c <translate+0xd6>
    4286:	0c01 0024      	cmpib #36,%d1
    428a:	6758           	beqs 42e4 <translate+0x9e>
    428c:	0c01 003b      	cmpib #59,%d1
    4290:	6708           	beqs 429a <translate+0x54>
    4292:	0c01 0020      	cmpib #32,%d1
    4296:	6676           	bnes 430e <translate+0xc8>
    4298:	600c           	bras 42a6 <translate+0x60>
    429a:	2f03           	movel %d3,%sp@-
    429c:	2f04           	movel %d4,%sp@-
    429e:	4e93           	jsr %a3@
    42a0:	508f           	addql #8,%sp
    42a2:	6000 0084      	braw 4328 <translate+0xe2>
    42a6:	4a42           	tstw %d2
    42a8:	6710           	beqs 42ba <translate+0x74>
    42aa:	4284           	clrl %d4
    42ac:	3802           	movew %d2,%d4
    42ae:	1181 49b0 ff00 	moveb %d1,@(ffffffffff002c14,%d4:l)
    42b4:	2c14 
    42b6:	5242           	addqw #1,%d2
    42b8:	5240           	addqw #1,%d0
    42ba:	0c40 007f      	cmpiw #127,%d0
    42be:	621a           	bhis 42da <translate+0x94>
    42c0:	4281           	clrl %d1
    42c2:	3200           	movew %d0,%d1
    42c4:	1230 19b0 ff00 	moveb @(ffffffffff002d5e,%d1:l),%d1
    42ca:	2d5e 
    42cc:	0c01 0020      	cmpib #32,%d1
    42d0:	67e6           	beqs 42b8 <translate+0x72>
    42d2:	0c01 0009      	cmpib #9,%d1
    42d6:	6650           	bnes 4328 <translate+0xe2>
    42d8:	60de           	bras 42b8 <translate+0x72>
    42da:	4e92           	jsr %a2@
    42dc:	4a40           	tstw %d0
    42de:	6746           	beqs 4326 <translate+0xe0>
    42e0:	4240           	clrw %d0
    42e2:	60dc           	bras 42c0 <translate+0x7a>
    42e4:	33c2 ff00 2c98 	movew %d2,ff002c98 <sub_index>
    42ea:	5240           	addqw #1,%d0
    42ec:	2f03           	movel %d3,%sp@-
    42ee:	4878 0001      	pea 1 <_text_start+0x1>
    42f2:	3f00           	movew %d0,%sp@-
    42f4:	4267           	clrw %sp@-
    42f6:	4e94           	jsr %a4@
    42f8:	3439 ff00 2c98 	movew ff002c98 <sub_index>,%d2
    42fe:	4fef 000c      	lea %sp@(12),%sp
    4302:	6024           	bras 4328 <translate+0xe2>
    4304:	13fc 0001 ff00 	moveb #1,ff002d58 <end_of_file>
    430a:	2d58 
    430c:	601a           	bras 4328 <translate+0xe2>
    430e:	4284           	clrl %d4
    4310:	3802           	movew %d2,%d4
    4312:	1181 49b0 ff00 	moveb %d1,@(ffffffffff002c14,%d4:l)
    4318:	2c14 
    431a:	5242           	addqw #1,%d2
    431c:	5240           	addqw #1,%d0
    431e:	0c40 007f      	cmpiw #127,%d0
    4322:	6304           	blss 4328 <translate+0xe2>
    4324:	4e92           	jsr %a2@
    4326:	4240           	clrw %d0
    4328:	4a39 ff00 2d58 	tstb ff002d58 <end_of_file>
    432e:	6620           	bnes 4350 <translate+0x10a>
    4330:	0c42 007f      	cmpiw #127,%d2
    4334:	621a           	bhis 4350 <translate+0x10a>
    4336:	4284           	clrl %d4
    4338:	3800           	movew %d0,%d4
    433a:	1230 49b0 ff00 	moveb @(ffffffffff002d5e,%d4:l),%d1
    4340:	2d5e 
    4342:	0c01 000d      	cmpib #13,%d1
    4346:	6708           	beqs 4350 <translate+0x10a>
    4348:	0c01 0021      	cmpib #33,%d1
    434c:	6600 ff1c      	bnew 426a <translate+0x24>
    4350:	4281           	clrl %d1
    4352:	3200           	movew %d0,%d1
    4354:	1230 19b0 ff00 	moveb @(ffffffffff002d5e,%d1:l),%d1
    435a:	2d5e 
    435c:	0c01 000d      	cmpib #13,%d1
    4360:	670c           	beqs 436e <translate+0x128>
    4362:	0c01 0021      	cmpib #33,%d1
    4366:	665c           	bnes 43c4 <translate+0x17e>
    4368:	6004           	bras 436e <translate+0x128>
    436a:	5240           	addqw #1,%d0
    436c:	6004           	bras 4372 <translate+0x12c>
    436e:	45fa fcae      	lea %pc@(401e <sub_read>),%a2
    4372:	0c40 007f      	cmpiw #127,%d0
    4376:	6220           	bhis 4398 <translate+0x152>
    4378:	4281           	clrl %d1
    437a:	3200           	movew %d0,%d1
    437c:	1230 19b0 ff00 	moveb @(ffffffffff002d5e,%d1:l),%d1
    4382:	2d5e 
    4384:	0c01 000d      	cmpib #13,%d1
    4388:	67e0           	beqs 436a <translate+0x124>
    438a:	0c01 000a      	cmpib #10,%d1
    438e:	67da           	beqs 436a <translate+0x124>
    4390:	0c01 0021      	cmpib #33,%d1
    4394:	6612           	bnes 43a8 <translate+0x162>
    4396:	60d2           	bras 436a <translate+0x124>
    4398:	0c40 0080      	cmpiw #128,%d0
    439c:	660a           	bnes 43a8 <translate+0x162>
    439e:	4e92           	jsr %a2@
    43a0:	4a40           	tstw %d0
    43a2:	671e           	beqs 43c2 <translate+0x17c>
    43a4:	4240           	clrw %d0
    43a6:	60d0           	bras 4378 <translate+0x132>
    43a8:	4281           	clrl %d1
    43aa:	3200           	movew %d0,%d1
    43ac:	0c30 001a 19b0 	cmpib #26,@(ffffffffff002d5e,%d1:l)
    43b2:	ff00 2d5e 
    43b6:	660c           	bnes 43c4 <translate+0x17e>
    43b8:	13fc 0001 ff00 	moveb #1,ff002d58 <end_of_file>
    43be:	2d58 
    43c0:	6002           	bras 43c4 <translate+0x17e>
    43c2:	4240           	clrw %d0
    43c4:	33c0 ff00 2c98 	movew %d0,ff002c98 <sub_index>
    43ca:	4cee 1c1c ffe8 	moveml %fp@(-24),%d2-%d4/%a2-%a4
    43d0:	4e5e           	unlk %fp
    43d2:	4e75           	rts

000043d4 <submit_cmd>:
    43d4:	4e56 0000      	linkw %fp,#0
    43d8:	48e7 2030      	moveml %d2/%a2-%a3,%sp@-
    43dc:	45f9 ff00 2c14 	lea ff002c14 <subcom>,%a2
    43e2:	204a           	moveal %a2,%a0
    43e4:	4218           	clrb %a0@+
    43e6:	b1fc ff00 2c95 	cmpal #-16765803,%a0
    43ec:	66f6           	bnes 43e4 <submit_cmd+0x10>
    43ee:	4878 00ff      	pea ff <trap3+0x73>
    43f2:	4878 0020      	pea 20 <chuser>
    43f6:	47f9 0000 4898 	lea 4898 <bdos>,%a3
    43fc:	4e93           	jsr %a3@
    43fe:	3400           	movew %d0,%d2
    4400:	4280           	clrl %d0
    4402:	3039 ff00 2c96 	movew ff002c96 <sub_user>,%d0
    4408:	2f00           	movel %d0,%sp@-
    440a:	4878 0020      	pea 20 <chuser>
    440e:	4e93           	jsr %a3@
    4410:	4879 ff00 2d5e 	pea ff002d5e <subdma>
    4416:	4878 001a      	pea 1a <setdma>
    441a:	4e93           	jsr %a3@
    441c:	4fef 0018      	lea %sp@(24),%sp
    4420:	4a39 ff00 2d55 	tstb ff002d55 <first_sub>
    4426:	6608           	bnes 4430 <submit_cmd+0x5c>
    4428:	4a39 ff00 2c9a 	tstb ff002c9a <chain_sub>
    442e:	6720           	beqs 4450 <submit_cmd+0x7c>
    4430:	4240           	clrw %d0
    4432:	4281           	clrl %d1
    4434:	3200           	movew %d0,%d1
    4436:	4230 19b0 ff00 	clrb @(ffffffffff002d5e,%d1:l)
    443c:	2d5e 
    443e:	5240           	addqw #1,%d0
    4440:	0c40 0080      	cmpiw #128,%d0
    4444:	66ec           	bnes 4432 <submit_cmd+0x5e>
    4446:	4eba fbd6      	jsr %pc@(401e <sub_read>)
    444a:	4279 ff00 2c98 	clrw ff002c98 <sub_index>
    4450:	4a39 ff00 2d58 	tstb ff002d58 <end_of_file>
    4456:	660a           	bnes 4462 <submit_cmd+0x8e>
    4458:	2f2e 0008      	movel %fp@(8),%sp@-
    445c:	4eba fde8      	jsr %pc@(4246 <translate>)
    4460:	588f           	addql #4,%sp
    4462:	1012           	moveb %a2@,%d0
    4464:	1200           	moveb %d0,%d1
    4466:	0601 ff9f      	addib #-97,%d1
    446a:	0c01 0019      	cmpib #25,%d1
    446e:	6204           	bhis 4474 <submit_cmd+0xa0>
    4470:	0600 ffe0      	addib #-32,%d0
    4474:	14c0           	moveb %d0,%a2@+
    4476:	b5fc ff00 2c94 	cmpal #-16765804,%a2
    447c:	66e4           	bnes 4462 <submit_cmd+0x8e>
    447e:	4879 ff00 2b91 	pea ff002b91 <dma>
    4484:	4878 001a      	pea 1a <setdma>
    4488:	45f9 0000 4898 	lea 4898 <bdos>,%a2
    448e:	4e92           	jsr %a2@
    4490:	3f02           	movew %d2,%sp@-
    4492:	4267           	clrw %sp@-
    4494:	4878 0020      	pea 20 <chuser>
    4498:	4e92           	jsr %a2@
    449a:	4fef 0010      	lea %sp@(16),%sp
    449e:	4cee 0c04 fff4 	moveml %fp@(-12),%d2/%a2-%a3
    44a4:	4e5e           	unlk %fp
    44a6:	4e75           	rts

000044a8 <execute_cmd>:
    44a8:	4e56 0000      	linkw %fp,#0
    44ac:	2f0a           	movel %a2,%sp@-
    44ae:	2f02           	movel %d2,%sp@-
    44b0:	2f2e 0008      	movel %fp@(8),%sp@-
    44b4:	4eba ee14      	jsr %pc@(32ca <decode>)
    44b8:	588f           	addql #4,%sp
    44ba:	0c40 0009      	cmpiw #9,%d0
    44be:	6200 012c      	bhiw 45ec <execute_cmd+0x144>
    44c2:	0280 0000 ffff 	andil #65535,%d0
    44c8:	303b 0a06      	movew %pc@(44d0 <execute_cmd+0x28>,%d0:l:2),%d0
    44cc:	4efb 0002      	jmp %pc@(44d0 <execute_cmd+0x28>,%d0:w)
    44d0:	0014 002e      	orib #46,%a4@
    44d4:	003c 004a      	orib #74,%ccr
    44d8:	0058 006e      	oriw #110,%a0@+
    44dc:	008a 011c 0104 	oril #18612484,%d2
    44e2:	001a 42ae      	orib #-82,%a2@+
    44e6:	0008           	.short 0x0008
    44e8:	6006           	bras 44f0 <execute_cmd+0x48>
    44ea:	7001           	moveq #1,%d0
    44ec:	2d40 0008      	movel %d0,%fp@(8)
    44f0:	242e fff8      	movel %fp@(-8),%d2
    44f4:	246e fffc      	moveal %fp@(-4),%a2
    44f8:	4e5e           	unlk %fp
    44fa:	6000 ef6a      	braw 3466 <dir_cmd>
    44fe:	242e fff8      	movel %fp@(-8),%d2
    4502:	246e fffc      	moveal %fp@(-4),%a2
    4506:	4e5e           	unlk %fp
    4508:	6000 f12a      	braw 3634 <type_cmd>
    450c:	242e fff8      	movel %fp@(-8),%d2
    4510:	246e fffc      	moveal %fp@(-4),%a2
    4514:	4e5e           	unlk %fp
    4516:	6000 f222      	braw 373a <ren_cmd>
    451a:	242e fff8      	movel %fp@(-8),%d2
    451e:	246e fffc      	moveal %fp@(-4),%a2
    4522:	4e5e           	unlk %fp
    4524:	6000 f4be      	braw 39e4 <era_cmd>
    4528:	4eba f5d2      	jsr %pc@(3afc <user_cmd>)
    452c:	4a40           	tstw %d0
    452e:	6600 00ca      	bnew 45fa <execute_cmd+0x152>
    4532:	4879 ff00 1213 	pea ff001213 <msg12>
    4538:	4878 0009      	pea 9 <printstr>
    453c:	6012           	bras 4550 <execute_cmd+0xa8>
    453e:	1039 ff00 2cbf 	moveb ff002cbf <parm>,%d0
    4544:	49c0           	extbl %d0
    4546:	2040           	moveal %d0,%a0
    4548:	4868 ffbf      	pea %a0@(-65)
    454c:	4878 000e      	pea e <BasPage+0x2>
    4550:	4eb9 0000 4898 	jsr 4898 <bdos>
    4556:	6000 00a0      	braw 45f8 <execute_cmd+0x150>
    455a:	4a39 ff00 2cd9 	tstb ff002cd9 <parm+0x1a>
    4560:	6668           	bnes 45ca <execute_cmd+0x122>
    4562:	4879 ff00 12d7 	pea ff0012d7 <msg2>
    4568:	4878 0009      	pea 9 <printstr>
    456c:	4eb9 0000 4898 	jsr 4898 <bdos>
    4572:	4878 007f      	pea 7f <gettpa+0x40>
    4576:	4879 ff00 2d5e 	pea ff002d5e <subdma>
    457c:	4eba e98e      	jsr %pc@(2f0c <get_cmd>)
    4580:	45f9 ff00 2d5e 	lea ff002d5e <subdma>,%a2
    4586:	43f9 ff00 2cd9 	lea ff002cd9 <parm+0x1a>,%a1
    458c:	4fef 0010      	lea %sp@(16),%sp
    4590:	4280           	clrl %d0
    4592:	6002           	bras 4596 <execute_cmd+0xee>
    4594:	12c1           	moveb %d1,%a1@+
    4596:	3400           	movew %d0,%d2
    4598:	2040           	moveal %d0,%a0
    459a:	121a           	moveb %a2@+,%d1
    459c:	0c01 0020      	cmpib #32,%d1
    45a0:	6712           	beqs 45b4 <execute_cmd+0x10c>
    45a2:	4a01           	tstb %d1
    45a4:	670e           	beqs 45b4 <execute_cmd+0x10c>
    45a6:	2008           	movel %a0,%d0
    45a8:	5280           	addql #1,%d0
    45aa:	741a           	moveq #26,%d2
    45ac:	b480           	cmpl %d0,%d2
    45ae:	66e4           	bnes 4594 <execute_cmd+0xec>
    45b0:	143c 0019      	moveb #25,%d2
    45b4:	4230 0170 ff00 	clrb %a0@(ffffffffff002cd9)
    45ba:	2cd9 
    45bc:	4a42           	tstw %d2
    45be:	673a           	beqs 45fa <execute_cmd+0x152>
    45c0:	13fc 0001 ff00 	moveb #1,ff002d30 <subprompt>
    45c6:	2d30 
    45c8:	6006           	bras 45d0 <execute_cmd+0x128>
    45ca:	4239 ff00 2d30 	clrb ff002d30 <subprompt>
    45d0:	7407           	moveq #7,%d2
    45d2:	6002           	bras 45d6 <execute_cmd+0x12e>
    45d4:	740a           	moveq #10,%d2
    45d6:	700f           	moveq #15,%d0
    45d8:	c082           	andl %d2,%d0
    45da:	2f00           	movel %d0,%sp@-
    45dc:	4eba f5bc      	jsr %pc@(3b9a <cmd_file>)
    45e0:	588f           	addql #4,%sp
    45e2:	4a40           	tstw %d0
    45e4:	6614           	bnes 45fa <execute_cmd+0x152>
    45e6:	0c42 0007      	cmpiw #7,%d2
    45ea:	670e           	beqs 45fa <execute_cmd+0x152>
    45ec:	42a7           	clrl %sp@-
    45ee:	4879 ff00 2cbf 	pea ff002cbf <parm>
    45f4:	4eba e83a      	jsr %pc@(2e30 <echo_cmd>)
    45f8:	508f           	addql #8,%sp
    45fa:	242e fff8      	movel %fp@(-8),%d2
    45fe:	246e fffc      	moveal %fp@(-4),%a2
    4602:	4e5e           	unlk %fp
    4604:	4e75           	rts

00004606 <main>:
    4606:	4e56 0000      	linkw %fp,#0
    460a:	48e7 303c      	moveml %d2-%d3/%a2-%a5,%sp@-
    460e:	103c 0036      	moveb #54,%d0
    4612:	4eb9 0000 10dc 	jsr 10dc <_chbo>
    4618:	4879 0000 72fe 	pea 72fe <__FUNCTION__.1183>
    461e:	4879 0000 72d5 	pea 72d5 <__FUNCTION__.884+0x145>
    4624:	4eb9 0000 169c 	jsr 169c <printf>
    462a:	13fc 0001 ff00 	moveb #1,ff002d2a <dirflag>
    4630:	2d2a 
    4632:	4879 ff00 2b91 	pea ff002b91 <dma>
    4638:	4878 001a      	pea 1a <setdma>
    463c:	45f9 0000 4898 	lea 4898 <bdos>,%a2
    4642:	4e92           	jsr %a2@
    4644:	4fef 0010      	lea %sp@(16),%sp
    4648:	4a39 ff00 2b90 	tstb ff002b90 <load_try>
    464e:	672a           	beqs 467a <main+0x74>
    4650:	4280           	clrl %d0
    4652:	3039 ff00 2b8e 	movew ff002b8e <cur_disk>,%d0
    4658:	2f00           	movel %d0,%sp@-
    465a:	4878 000e      	pea e <BasPage+0x2>
    465e:	4e92           	jsr %a2@
    4660:	4280           	clrl %d0
    4662:	3039 ff00 2d28 	movew ff002d28 <user>,%d0
    4668:	2f00           	movel %d0,%sp@-
    466a:	4878 0020      	pea 20 <chuser>
    466e:	4e92           	jsr %a2@
    4670:	4239 ff00 2b90 	clrb ff002b90 <load_try>
    4676:	4fef 0010      	lea %sp@(16),%sp
    467a:	4a39 ff00 140c 	tstb ff00140c <morecmds>
    4680:	676a           	beqs 46ec <main+0xe6>
    4682:	4a39 ff00 140a 	tstb ff00140a <submit>
    4688:	673e           	beqs 46c8 <main+0xc2>
    468a:	4879 ff00 2dde 	pea ff002dde <save_sub>
    4690:	45f9 0000 43d4 	lea 43d4 <submit_cmd>,%a2
    4696:	601c           	bras 46b4 <main+0xae>
    4698:	4a39 ff00 2d58 	tstb ff002d58 <end_of_file>
    469e:	670e           	beqs 46ae <main+0xa8>
    46a0:	2479 ff00 2e60 	moveal ff002e60 <user_ptr>,%a2
    46a6:	4239 ff00 140a 	clrb ff00140a <submit>
    46ac:	6020           	bras 46ce <main+0xc8>
    46ae:	4879 ff00 2dde 	pea ff002dde <save_sub>
    46b4:	4e92           	jsr %a2@
    46b6:	588f           	addql #4,%sp
    46b8:	4a39 ff00 2c14 	tstb ff002c14 <subcom>
    46be:	67d8           	beqs 4698 <main+0x92>
    46c0:	45f9 ff00 2c14 	lea ff002c14 <subcom>,%a2
    46c6:	6006           	bras 46ce <main+0xc8>
    46c8:	2479 ff00 2e60 	moveal ff002e60 <user_ptr>,%a2
    46ce:	4239 ff00 140c 	clrb ff00140c <morecmds>
    46d4:	4a12           	tstb %a2@
    46d6:	6700 013c      	beqw 4814 <main+0x20e>
    46da:	4878 0001      	pea 1 <_text_start+0x1>
    46de:	2f0a           	movel %a2,%sp@-
    46e0:	4eb9 0000 2e30 	jsr 2e30 <echo_cmd>
    46e6:	508f           	addql #8,%sp
    46e8:	6000 012a      	braw 4814 <main+0x20e>
    46ec:	4eb9 0000 2d98 	jsr 2d98 <prompt>
    46f2:	4a39 ff00 1384 	tstb ff001384 <autost>
    46f8:	6720           	beqs 471a <main+0x114>
    46fa:	4a39 ff00 2c95 	tstb ff002c95 <autorom>
    4700:	6718           	beqs 471a <main+0x114>
    4702:	4878 0001      	pea 1 <_text_start+0x1>
    4706:	4879 ff00 1385 	pea ff001385 <usercmd>
    470c:	4eb9 0000 2e30 	jsr 2e30 <echo_cmd>
    4712:	4239 ff00 2c95 	clrb ff002c95 <autorom>
    4718:	6010           	bras 472a <main+0x124>
    471a:	4878 0080      	pea 80 <secsize>
    471e:	4879 ff00 1385 	pea ff001385 <usercmd>
    4724:	4eb9 0000 2f0c 	jsr 2f0c <get_cmd>
    472a:	508f           	addql #8,%sp
    472c:	45f9 ff00 1385 	lea ff001385 <usercmd>,%a2
    4732:	6000 00e0      	braw 4814 <main+0x20e>
    4736:	23ca ff00 2d5a 	movel %a2,ff002d5a <glb_index>
    473c:	2f0a           	movel %a2,%sp@-
    473e:	2043           	moveal %d3,%a0
    4740:	4e90           	jsr %a0@
    4742:	1039 ff00 2cbf 	moveb ff002cbf <parm>,%d0
    4748:	588f           	addql #4,%sp
    474a:	6712           	beqs 475e <main+0x158>
    474c:	0c00 003b      	cmpib #59,%d0
    4750:	670c           	beqs 475e <main+0x158>
    4752:	4879 ff00 2cbf 	pea ff002cbf <parm>
    4758:	2042           	moveal %d2,%a0
    475a:	4e90           	jsr %a0@
    475c:	588f           	addql #4,%sp
    475e:	4a39 ff00 140a 	tstb ff00140a <submit>
    4764:	660c           	bnes 4772 <main+0x16c>
    4766:	2f0a           	movel %a2,%sp@-
    4768:	4e93           	jsr %a3@
    476a:	588f           	addql #4,%sp
    476c:	2440           	moveal %d0,%a2
    476e:	6000 0090      	braw 4800 <main+0x1fa>
    4772:	4a39 ff00 2d55 	tstb ff002d55 <first_sub>
    4778:	6608           	bnes 4782 <main+0x17c>
    477a:	4a39 ff00 2c9a 	tstb ff002c9a <chain_sub>
    4780:	6748           	beqs 47ca <main+0x1c4>
    4782:	4a39 ff00 2d30 	tstb ff002d30 <subprompt>
    4788:	6708           	beqs 4792 <main+0x18c>
    478a:	4879 ff00 2d5e 	pea ff002d5e <subdma>
    4790:	6006           	bras 4798 <main+0x192>
    4792:	2f39 ff00 2d5a 	movel ff002d5a <glb_index>,%sp@-
    4798:	4e94           	jsr %a4@
    479a:	588f           	addql #4,%sp
    479c:	4a39 ff00 2d55 	tstb ff002d55 <first_sub>
    47a2:	6710           	beqs 47b4 <main+0x1ae>
    47a4:	2f39 ff00 2d5a 	movel ff002d5a <glb_index>,%sp@-
    47aa:	4e93           	jsr %a3@
    47ac:	588f           	addql #4,%sp
    47ae:	23c0 ff00 2e60 	movel %d0,ff002e60 <user_ptr>
    47b4:	4879 ff00 2dde 	pea ff002dde <save_sub>
    47ba:	4e95           	jsr %a5@
    47bc:	4239 ff00 2c9a 	clrb ff002c9a <chain_sub>
    47c2:	4239 ff00 2d55 	clrb ff002d55 <first_sub>
    47c8:	6026           	bras 47f0 <main+0x1ea>
    47ca:	4239 ff00 2c14 	clrb ff002c14 <subcom>
    47d0:	6020           	bras 47f2 <main+0x1ec>
    47d2:	4a39 ff00 2d58 	tstb ff002d58 <end_of_file>
    47d8:	670e           	beqs 47e8 <main+0x1e2>
    47da:	2479 ff00 2e60 	moveal ff002e60 <user_ptr>,%a2
    47e0:	4239 ff00 140a 	clrb ff00140a <submit>
    47e6:	6018           	bras 4800 <main+0x1fa>
    47e8:	4879 ff00 2dde 	pea ff002dde <save_sub>
    47ee:	4e95           	jsr %a5@
    47f0:	588f           	addql #4,%sp
    47f2:	4a39 ff00 2c14 	tstb ff002c14 <subcom>
    47f8:	67d8           	beqs 47d2 <main+0x1cc>
    47fa:	45f9 ff00 2c14 	lea ff002c14 <subcom>,%a2
    4800:	4a12           	tstb %a2@
    4802:	672e           	beqs 4832 <main+0x22c>
    4804:	4878 0001      	pea 1 <_text_start+0x1>
    4808:	2f0a           	movel %a2,%sp@-
    480a:	4eb9 0000 2e30 	jsr 2e30 <echo_cmd>
    4810:	508f           	addql #8,%sp
    4812:	601e           	bras 4832 <main+0x22c>
    4814:	263c 0000 300e 	movel #12302,%d3
    481a:	243c 0000 44a8 	movel #17576,%d2
    4820:	4bf9 0000 43d4 	lea 43d4 <submit_cmd>,%a5
    4826:	49f9 0000 2d4a 	lea 2d4a <copy_cmd>,%a4
    482c:	47f9 0000 2fda 	lea 2fda <scan_cmd>,%a3
    4832:	4a12           	tstb %a2@
    4834:	6600 ff00      	bnew 4736 <main+0x130>
    4838:	4cee 3c0c ffe8 	moveml %fp@(-24),%d2-%d3/%a2-%a5
    483e:	4e5e           	unlk %fp
    4840:	4e75           	rts
	...

00004844 <init_tbl>:
    4844:	23fc ff00 1334 	movel #-16772300,ff001494 <load_tbl>
    484a:	ff00 1494 
    484e:	23fc ff00 1338 	movel #-16772296,ff00149e <typ2p>
    4854:	ff00 149e 
    4858:	23fc ff00 133c 	movel #-16772292,ff0014a8 <typ3p>
    485e:	ff00 14a8 
    4862:	23fc ff00 1340 	movel #-16772288,ff0014b2 <typ4p>
    4868:	ff00 14b2 
    486c:	23fc 0000 2bdc 	movel #11228,ff001498 <pgld1>
    4872:	ff00 1498 
    4876:	23fc 0000 2bdc 	movel #11228,ff0014a2 <pgld2>
    487c:	ff00 14a2 
    4880:	23fc 0000 2bdc 	movel #11228,ff0014ac <pgld3>
    4886:	ff00 14ac 
    488a:	23fc 0000 2bdc 	movel #11228,ff0014b6 <pgld4>
    4890:	ff00 14b6 
    4894:	4e75           	rts
	...

00004898 <bdos>:
    4898:	202f 0004      	movel %sp@(4),%d0
    489c:	222f 0008      	movel %sp@(8),%d1
    48a0:	4e42           	trap #2
    48a2:	4e75           	rts

000048a4 <traphndl>:
    48a4:	0c40 003e      	cmpiw #62,%d0
    48a8:	6700 0036      	beqw 48e0 <setsup>
    48ac:	48e7 7ffe      	moveml %d1-%fp,%sp@-
    48b0:	0c40 0032      	cmpiw #50,%d0
    48b4:	6700 001c      	beqw 48d2 <bioscall>
    48b8:	2f01           	movel %d1,%sp@-
    48ba:	2f01           	movel %d1,%sp@-
    48bc:	2f00           	movel %d0,%sp@-
    48be:	4eb9 0000 4986 	jsr 4986 <_bdos>
    48c4:	48c0           	extl %d0
    48c6:	dffc 0000 000c 	addal #12,%sp

000048cc <bdone>:
    48cc:	4cdf 7ffe      	moveml %sp@+,%d1-%fp
    48d0:	4e73           	rte

000048d2 <bioscall>:
    48d2:	2041           	moveal %d1,%a0
    48d4:	3018           	movew %a0@+,%d0
    48d6:	4cd8 0006      	moveml %a0@+,%d1-%d2
    48da:	4e43           	trap #3
    48dc:	6000 ffee      	braw 48cc <bdone>

000048e0 <setsup>:
    48e0:	0057 2000      	oriw #8192,%sp@
    48e4:	4e73           	rte

000048e6 <bios4>:
    48e6:	2f02           	movel %d2,%sp@-
    48e8:	242f 0010      	movel %sp@(16),%d2
    48ec:	222f 000c      	movel %sp@(12),%d1
    48f0:	202f 0008      	movel %sp@(8),%d0
    48f4:	48e7 1f1e      	moveml %d3-%d7/%a3-%fp,%sp@-
    48f8:	4e43           	trap #3
    48fa:	4cdf 78f8      	moveml %sp@+,%d3-%d7/%a3-%fp
    48fe:	241f           	movel %sp@+,%d2
    4900:	4e75           	rts

00004902 <bios3>:
    4902:	222f 0008      	movel %sp@(8),%d1
    4906:	6000 0006      	braw 490e <bios1>

0000490a <bios2>:
    490a:	222f 0008      	movel %sp@(8),%d1

0000490e <bios1>:
    490e:	202f 0004      	movel %sp@(4),%d0
    4912:	48e7 1f1e      	moveml %d3-%d7/%a3-%fp,%sp@-
    4916:	4e43           	trap #3
    4918:	4cdf 78f8      	moveml %sp@+,%d3-%d7/%a3-%fp
    491c:	4e75           	rts

0000491e <swap>:
    491e:	102f 0005      	moveb %sp@(5),%d0
    4922:	e148           	lslw #8,%d0
    4924:	102f 0004      	moveb %sp@(4),%d0
    4928:	4e75           	rts

0000492a <udiv>:
    492a:	202f 0004      	movel %sp@(4),%d0
    492e:	80ef 0008      	divuw %sp@(8),%d0
    4932:	206f 000a      	moveal %sp@(10),%a0
    4936:	4840           	swap %d0
    4938:	3080           	movew %d0,%a0@
    493a:	4240           	clrw %d0
    493c:	4840           	swap %d0
    493e:	4e75           	rts

00004940 <tmp_sel>:
    4940:	4e56 0000      	linkw %fp,#0
    4944:	2f0b           	movel %a3,%sp@-
    4946:	2f0a           	movel %a2,%sp@-
    4948:	246e 0008      	moveal %fp@(8),%a2
    494c:	266a 0002      	moveal %a2@(2),%a3
    4950:	1013           	moveb %a3@,%d0
    4952:	1480           	moveb %d0,%a2@
    4954:	6706           	beqs 495c <tmp_sel+0x1c>
    4956:	49c0           	extbl %d0
    4958:	5380           	subql #1,%d0
    495a:	6008           	bras 4964 <tmp_sel+0x24>
    495c:	1039 ff00 2e6f 	moveb ff002e6f <gbls+0xb>,%d0
    4962:	49c0           	extbl %d0
    4964:	2f00           	movel %d0,%sp@-
    4966:	4eb9 0000 6276 	jsr 6276 <seldsk>
    496c:	16b9 ff00 2e70 	moveb ff002e70 <gbls+0xc>,%a3@
    4972:	157c 0001 0001 	moveb #1,%a2@(1)
    4978:	588f           	addql #4,%sp
    497a:	246e fff8      	moveal %fp@(-8),%a2
    497e:	266e fffc      	moveal %fp@(-4),%a3
    4982:	4e5e           	unlk %fp
    4984:	4e75           	rts

00004986 <_bdos>:
    4986:	4e56 fff8      	linkw %fp,#-8
    498a:	2f0a           	movel %a2,%sp@-
    498c:	2f02           	movel %d2,%sp@-
    498e:	242e 000c      	movel %fp@(12),%d2
    4992:	246e 0010      	moveal %fp@(16),%a2
    4996:	422e fffb      	clrb %fp@(-5)
    499a:	2d4a fffc      	movel %a2,%fp@(-4)
    499e:	4280           	clrl %d0
    49a0:	302e 000a      	movew %fp@(10),%d0
    49a4:	723f           	moveq #63,%d1
    49a6:	b280           	cmpl %d0,%d1
    49a8:	6500 03ae      	bcsw 4d58 <_bdos+0x3d2>
    49ac:	303b 0a06      	movew %pc@(49b4 <_bdos+0x2e>,%d0:l:2),%d0
    49b0:	4efb 0002      	jmp %pc@(49b4 <_bdos+0x2e>,%d0:w)
    49b4:	0088 0092 009a 	oril #9568410,%d0
    49ba:	00a8 00ae 00b8 	oril #11403448,%a0@(194)
    49c0:	00c2 
    49c2:	00d2           	.short 0x00d2
    49c4:	00de           	.short 0x00de
    49c6:	00ee           	.short 0x00ee
    49c8:	00fa           	.short 0x00fa
    49ca:	0106           	btst %d0,%d6
    49cc:	0080 0112 0134 	oril #17957172,%d0
    49d2:	014a 0168      	movepl %a2@(360),%d0
    49d6:	017e           	.short 0x017e
    49d8:	018c 01ae      	movepw %d0,%a4@(430)
    49dc:	01c6           	bset %d0,%d6
    49de:	01d4           	bset %d0,%a4@
    49e0:	01e2           	bset %d0,%a2@-
    49e2:	0208           	.short 0x0208
    49e4:	021e 0228      	andib #40,%fp@+
    49e8:	0234 03a4 023e 	andib #-92,%a4@(000000000000003e,%d0:w:2)
    49ee:	0254 025e      	andiw #606,%a4@
    49f2:	027c 02b0      	andiw #688,%sr
    49f6:	02ce           	.short 0x02ce
    49f8:	02e0           	.short 0x02e0
    49fa:	02ee           	.short 0x02ee
    49fc:	0300           	btst %d1,%d0
    49fe:	0316           	btst %d1,%fp@
    4a00:	03a4           	bclr %d1,%a4@-
    4a02:	03a4           	bclr %d1,%a4@-
    4a04:	032c 03a4      	btst %d1,%a4@(932)
    4a08:	03a4           	bclr %d1,%a4@-
    4a0a:	03a4           	bclr %d1,%a4@-
    4a0c:	03a4           	bclr %d1,%a4@-
    4a0e:	03a4           	bclr %d1,%a4@-
    4a10:	0348 0352      	movepl %a0@(850),%d1
    4a14:	0366           	bchg %d1,%fp@-
    4a16:	03a4           	bclr %d1,%a4@-
    4a18:	03a4           	bclr %d1,%a4@-
    4a1a:	03a4           	bclr %d1,%a4@-
    4a1c:	03a4           	bclr %d1,%a4@-
    4a1e:	03a4           	bclr %d1,%a4@-
    4a20:	03a4           	bclr %d1,%a4@-
    4a22:	03a4           	bclr %d1,%a4@-
    4a24:	03a4           	bclr %d1,%a4@-
    4a26:	03a4           	bclr %d1,%a4@-
    4a28:	03a4           	bclr %d1,%a4@-
    4a2a:	036e 03a4      	bchg %d1,%fp@(932)
    4a2e:	0380           	bclr %d1,%d0
    4a30:	03a4           	bclr %d1,%a4@-
    4a32:	038c 303c      	movepw %d1,%a4@(12348)
    4a36:	2022           	movel %a2@-,%d0
    4a38:	6000 0320      	braw 4d5a <_bdos+0x3d4>
    4a3c:	42a7           	clrl %sp@-
    4a3e:	4eb9 0000 4e6e 	jsr 4e6e <warmboot>
    4a44:	588f           	addql #4,%sp
    4a46:	4eb9 0000 585c 	jsr 585c <conin>
    4a4c:	6072           	bras 4ac0 <_bdos+0x13a>
    4a4e:	49c2           	extbl %d2
    4a50:	2f02           	movel %d2,%sp@-
    4a52:	4eb9 0000 578a 	jsr 578a <tabout>
    4a58:	6000 02ee      	braw 4d48 <_bdos+0x3c2>
    4a5c:	4878 0007      	pea 7 <LoAdr+0x3>
    4a60:	6028           	bras 4a8a <_bdos+0x104>
    4a62:	49c2           	extbl %d2
    4a64:	2f02           	movel %d2,%sp@-
    4a66:	4878 0006      	pea 6 <LoAdr+0x2>
    4a6a:	602c           	bras 4a98 <_bdos+0x112>
    4a6c:	49c2           	extbl %d2
    4a6e:	2f02           	movel %d2,%sp@-
    4a70:	4878 0005      	pea 5 <LoAdr+0x1>
    4a74:	6022           	bras 4a98 <_bdos+0x112>
    4a76:	2f02           	movel %d2,%sp@-
    4a78:	4eb9 0000 5892 	jsr 5892 <rawconio>
    4a7e:	4880           	extw %d0
    4a80:	588f           	addql #4,%sp
    4a82:	6000 02d6      	braw 4d5a <_bdos+0x3d4>
    4a86:	4878 0013      	pea 13 <bgetseg+0x1>
    4a8a:	4eb9 0000 490e 	jsr 490e <bios1>
    4a90:	60ec           	bras 4a7e <_bdos+0xf8>
    4a92:	2f02           	movel %d2,%sp@-
    4a94:	4878 0014      	pea 14 <bgetseg+0x2>
    4a98:	4eb9 0000 490a 	jsr 490a <bios2>
    4a9e:	6000 0224      	braw 4cc4 <_bdos+0x33e>
    4aa2:	2f0a           	movel %a2,%sp@-
    4aa4:	4eb9 0000 58c8 	jsr 58c8 <prt_line>
    4aaa:	6000 029c      	braw 4d48 <_bdos+0x3c2>
    4aae:	2f0a           	movel %a2,%sp@-
    4ab0:	4eb9 0000 59b0 	jsr 59b0 <readline>
    4ab6:	6000 0290      	braw 4d48 <_bdos+0x3c2>
    4aba:	4eb9 0000 566c 	jsr 566c <constat>
    4ac0:	4880           	extw %d0
    4ac2:	6000 0296      	braw 4d5a <_bdos+0x3d4>
    4ac6:	4279 ff00 2f60 	clrw ff002f60 <log_dsk>
    4acc:	4279 ff00 2f6a 	clrw ff002f6a <ro_dsk>
    4ad2:	4279 ff00 2f56 	clrw ff002f56 <crit_dsk>
    4ad8:	50f9 ff00 2e6e 	st ff002e6e <gbls+0xa>
    4ade:	4239 ff00 2e6f 	clrb ff002e6f <gbls+0xb>
    4ae4:	6000 0264      	braw 4d4a <_bdos+0x3c4>
    4ae8:	1002           	moveb %d2,%d0
    4aea:	49c0           	extbl %d0
    4aec:	2f00           	movel %d0,%sp@-
    4aee:	4eb9 0000 6276 	jsr 6276 <seldsk>
    4af4:	13c2 ff00 2e6f 	moveb %d2,ff002e6f <gbls+0xb>
    4afa:	6000 024c      	braw 4d48 <_bdos+0x3c2>
    4afe:	486e fffa      	pea %fp@(-6)
    4b02:	4eba fe3c      	jsr %pc@(4940 <tmp_sel>)
    4b06:	422a 000c      	clrb %a2@(12)
    4b0a:	422a 000e      	clrb %a2@(14)
    4b0e:	42a7           	clrl %sp@-
    4b10:	2f0a           	movel %a2,%sp@-
    4b12:	4879 0000 6622 	pea 6622 <openfile>
    4b18:	6000 010c      	braw 4c26 <_bdos+0x2a0>
    4b1c:	486e fffa      	pea %fp@(-6)
    4b20:	4eba fe1e      	jsr %pc@(4940 <tmp_sel>)
    4b24:	2f0a           	movel %a2,%sp@-
    4b26:	4eb9 0000 66c4 	jsr 66c4 <close_fi>
    4b2c:	508f           	addql #8,%sp
    4b2e:	6000 021c      	braw 4d4c <_bdos+0x3c6>
    4b32:	23ca ff00 2e84 	movel %a2,ff002e84 <gbls+0x20>
    4b38:	486e fffa      	pea %fp@(-6)
    4b3c:	42a7           	clrl %sp@-
    4b3e:	6012           	bras 4b52 <_bdos+0x1cc>
    4b40:	2479 ff00 2e84 	moveal ff002e84 <gbls+0x20>,%a2
    4b46:	2d4a fffc      	movel %a2,%fp@(-4)
    4b4a:	486e fffa      	pea %fp@(-6)
    4b4e:	4878 0001      	pea 1 <_text_start+0x1>
    4b52:	2f0a           	movel %a2,%sp@-
    4b54:	4eb9 0000 66f6 	jsr 66f6 <search>
    4b5a:	4fef 000c      	lea %sp@(12),%sp
    4b5e:	6000 01ec      	braw 4d4c <_bdos+0x3c6>
    4b62:	486e fffa      	pea %fp@(-6)
    4b66:	4eba fdd8      	jsr %pc@(4940 <tmp_sel>)
    4b6a:	4878 0002      	pea 2 <buserr>
    4b6e:	2f0a           	movel %a2,%sp@-
    4b70:	4879 0000 6790 	pea 6790 <delete>
    4b76:	6000 00ae      	braw 4c26 <_bdos+0x2a0>
    4b7a:	486e fffa      	pea %fp@(-6)
    4b7e:	4eba fdc0      	jsr %pc@(4940 <tmp_sel>)
    4b82:	42a7           	clrl %sp@-
    4b84:	6000 0108      	braw 4c8e <_bdos+0x308>
    4b88:	486e fffa      	pea %fp@(-6)
    4b8c:	4eba fdb2      	jsr %pc@(4940 <tmp_sel>)
    4b90:	42a7           	clrl %sp@-
    4b92:	6000 0158      	braw 4cec <_bdos+0x366>
    4b96:	486e fffa      	pea %fp@(-6)
    4b9a:	4eba fda4      	jsr %pc@(4940 <tmp_sel>)
    4b9e:	422a 000c      	clrb %a2@(12)
    4ba2:	422a 000d      	clrb %a2@(13)
    4ba6:	422a 000e      	clrb %a2@(14)
    4baa:	422a 000f      	clrb %a2@(15)
    4bae:	4878 0008      	pea 8 <HiAdr>
    4bb2:	2f0a           	movel %a2,%sp@-
    4bb4:	4879 0000 6786 	pea 6786 <create>
    4bba:	606a           	bras 4c26 <_bdos+0x2a0>
    4bbc:	486e fffa      	pea %fp@(-6)
    4bc0:	4eba fd7e      	jsr %pc@(4940 <tmp_sel>)
    4bc4:	4878 0002      	pea 2 <buserr>
    4bc8:	2f0a           	movel %a2,%sp@-
    4bca:	4879 0000 6836 	pea 6836 <rename>
    4bd0:	6054           	bras 4c26 <_bdos+0x2a0>
    4bd2:	3039 ff00 2f60 	movew ff002f60 <log_dsk>,%d0
    4bd8:	6000 0180      	braw 4d5a <_bdos+0x3d4>
    4bdc:	4240           	clrw %d0
    4bde:	1039 ff00 2e6f 	moveb ff002e6f <gbls+0xb>,%d0
    4be4:	6000 0174      	braw 4d5a <_bdos+0x3d4>
    4be8:	23ca ff00 2e80 	movel %a2,ff002e80 <gbls+0x1c>
    4bee:	6000 015a      	braw 4d4a <_bdos+0x3c4>
    4bf2:	1239 ff00 2e6f 	moveb ff002e6f <gbls+0xb>,%d1
    4bf8:	49c1           	extbl %d1
    4bfa:	7001           	moveq #1,%d0
    4bfc:	e3a8           	lsll %d1,%d0
    4bfe:	8179 ff00 2f6a 	orw %d0,ff002f6a <ro_dsk>
    4c04:	6000 0144      	braw 4d4a <_bdos+0x3c4>
    4c08:	3039 ff00 2f6a 	movew ff002f6a <ro_dsk>,%d0
    4c0e:	6000 014a      	braw 4d5a <_bdos+0x3d4>
    4c12:	486e fffa      	pea %fp@(-6)
    4c16:	4eba fd28      	jsr %pc@(4940 <tmp_sel>)
    4c1a:	4878 0002      	pea 2 <buserr>
    4c1e:	2f0a           	movel %a2,%sp@-
    4c20:	4879 0000 68a0 	pea 68a0 <set_attr>
    4c26:	4eb9 0000 5cae 	jsr 5cae <dirscan>
    4c2c:	6000 00c8      	braw 4cf6 <_bdos+0x370>
    4c30:	1039 ff00 2e6f 	moveb ff002e6f <gbls+0xb>,%d0
    4c36:	b039 ff00 2e6e 	cmpb ff002e6e <gbls+0xa>,%d0
    4c3c:	670c           	beqs 4c4a <_bdos+0x2c4>
    4c3e:	49c0           	extbl %d0
    4c40:	2f00           	movel %d0,%sp@-
    4c42:	4eb9 0000 6276 	jsr 6276 <seldsk>
    4c48:	588f           	addql #4,%sp
    4c4a:	4878 0010      	pea 10 <Stack>
    4c4e:	2f0a           	movel %a2,%sp@-
    4c50:	2f39 ff00 2e7a 	movel ff002e7a <gbls+0x16>,%sp@-
    4c56:	4eb9 0000 646e 	jsr 646e <move>
    4c5c:	4fef 000c      	lea %sp@(12),%sp
    4c60:	6000 00e8      	braw 4d4a <_bdos+0x3c4>
    4c64:	7000           	moveq #0,%d0
    4c66:	4600           	notb %d0
    4c68:	c082           	andl %d2,%d0
    4c6a:	720f           	moveq #15,%d1
    4c6c:	b280           	cmpl %d0,%d1
    4c6e:	6d06           	blts 4c76 <_bdos+0x2f0>
    4c70:	13c2 ff00 2e70 	moveb %d2,ff002e70 <gbls+0xc>
    4c76:	4240           	clrw %d0
    4c78:	1039 ff00 2e70 	moveb ff002e70 <gbls+0xc>,%d0
    4c7e:	6000 00da      	braw 4d5a <_bdos+0x3d4>
    4c82:	486e fffa      	pea %fp@(-6)
    4c86:	4eba fcb8      	jsr %pc@(4940 <tmp_sel>)
    4c8a:	4878 0001      	pea 1 <_text_start+0x1>
    4c8e:	4878 0001      	pea 1 <_text_start+0x1>
    4c92:	605a           	bras 4cee <_bdos+0x368>
    4c94:	486e fffa      	pea %fp@(-6)
    4c98:	4eba fca6      	jsr %pc@(4940 <tmp_sel>)
    4c9c:	4878 0001      	pea 1 <_text_start+0x1>
    4ca0:	604a           	bras 4cec <_bdos+0x366>
    4ca2:	486e fffa      	pea %fp@(-6)
    4ca6:	4eba fc98      	jsr %pc@(4940 <tmp_sel>)
    4caa:	2f0a           	movel %a2,%sp@-
    4cac:	4eb9 0000 69a8 	jsr 69a8 <getsize>
    4cb2:	6010           	bras 4cc4 <_bdos+0x33e>
    4cb4:	486e fffa      	pea %fp@(-6)
    4cb8:	4eba fc86      	jsr %pc@(4940 <tmp_sel>)
    4cbc:	2f0a           	movel %a2,%sp@-
    4cbe:	4eb9 0000 6972 	jsr 6972 <setran>
    4cc4:	508f           	addql #8,%sp
    4cc6:	6000 0082      	braw 4d4a <_bdos+0x3c4>
    4cca:	4642           	notw %d2
    4ccc:	c579 ff00 2f60 	andw %d2,ff002f60 <log_dsk>
    4cd2:	c579 ff00 2f6a 	andw %d2,ff002f6a <ro_dsk>
    4cd8:	c579 ff00 2f56 	andw %d2,ff002f56 <crit_dsk>
    4cde:	606a           	bras 4d4a <_bdos+0x3c4>
    4ce0:	486e fffa      	pea %fp@(-6)
    4ce4:	4eba fc5a      	jsr %pc@(4940 <tmp_sel>)
    4ce8:	4878 0002      	pea 2 <buserr>
    4cec:	42a7           	clrl %sp@-
    4cee:	2f0a           	movel %a2,%sp@-
    4cf0:	4eb9 0000 54a2 	jsr 54a2 <bdosrw>
    4cf6:	4fef 0010      	lea %sp@(16),%sp
    4cfa:	6050           	bras 4d4c <_bdos+0x3c6>
    4cfc:	2f02           	movel %d2,%sp@-
    4cfe:	4eb9 0000 6a12 	jsr 6a12 <free_sp>
    4d04:	6042           	bras 4d48 <_bdos+0x3c2>
    4d06:	23f9 ff00 2e80 	movel ff002e80 <gbls+0x1c>,ff002e6a <gbls+0x6>
    4d0c:	ff00 2e6a 
    4d10:	42a7           	clrl %sp@-
    4d12:	4eb9 0000 4e6e 	jsr 4e6e <warmboot>
    4d18:	588f           	addql #4,%sp
    4d1a:	4eb9 0000 6682 	jsr 6682 <flushit>
    4d20:	6038           	bras 4d5a <_bdos+0x3d4>
    4d22:	2f39 ff00 2e80 	movel ff002e80 <gbls+0x1c>,%sp@-
    4d28:	2f0a           	movel %a2,%sp@-
    4d2a:	4eb9 0000 6ba4 	jsr 6ba4 <pgmld>
    4d30:	508f           	addql #8,%sp
    4d32:	6026           	bras 4d5a <_bdos+0x3d4>
    4d34:	2f0a           	movel %a2,%sp@-
    4d36:	4eb9 0000 513a 	jsr 513a <setexc>
    4d3c:	6000 fd42      	braw 4a80 <_bdos+0xfa>
    4d40:	2f0a           	movel %a2,%sp@-
    4d42:	4eb9 0000 5192 	jsr 5192 <set_tpa>
    4d48:	588f           	addql #4,%sp
    4d4a:	4240           	clrw %d0
    4d4c:	4a2e fffb      	tstb %fp@(-5)
    4d50:	6708           	beqs 4d5a <_bdos+0x3d4>
    4d52:	14ae fffa      	moveb %fp@(-6),%a2@
    4d56:	6002           	bras 4d5a <_bdos+0x3d4>
    4d58:	70ff           	moveq #-1,%d0
    4d5a:	242e fff0      	movel %fp@(-16),%d2
    4d5e:	246e fff4      	moveal %fp@(-12),%a2
    4d62:	4e5e           	unlk %fp
    4d64:	4e75           	rts
	...

00004d68 <bdosinit>:
    4d68:	4e56 0000      	linkw %fp,#0
    4d6c:	103c 0033      	moveb #51,%d0
    4d70:	4eb9 0000 10dc 	jsr 10dc <_chbo>
    4d76:	4879 0000 48a4 	pea 48a4 <traphndl>
    4d7c:	4879 0000 746d 	pea 746d <__FUNCTION__.873>
    4d82:	4879 0000 7303 	pea 7303 <__FUNCTION__.1183+0x5>
    4d88:	4eb9 0000 169c 	jsr 169c <printf>
    4d8e:	4879 0000 48a4 	pea 48a4 <traphndl>
    4d94:	4878 0022      	pea 22 <trap2>
    4d98:	4878 0016      	pea 16 <bsetexc>
    4d9c:	4eb9 0000 48e6 	jsr 48e6 <bios4>
    4da2:	4239 ff00 2e64 	clrb ff002e64 <gbls>
    4da8:	23fc ff00 2ed8 	movel #-16765224,ff002ed4 <gbls+0x70>
    4dae:	ff00 2ed4 
    4db2:	23fc ff00 2ed8 	movel #-16765224,ff002ed0 <gbls+0x6c>
    4db8:	ff00 2ed0 
    4dbc:	13fc 0024 ff00 	moveb #36,ff002e65 <gbls+0x1>
    4dc2:	2e65 
    4dc4:	4239 ff00 2e66 	clrb ff002e66 <gbls+0x2>
    4dca:	13fc 0001 ff00 	moveb #1,ff002e67 <gbls+0x3>
    4dd0:	2e67 
    4dd2:	42b9 ff00 2e6a 	clrl ff002e6a <gbls+0x6>
    4dd8:	4279 ff00 2f60 	clrw ff002f60 <log_dsk>
    4dde:	103c 0037      	moveb #55,%d0
    4de2:	4eb9 0000 10dc 	jsr 10dc <_chbo>
    4de8:	4878 000d      	pea d <BasPage+0x1>
    4dec:	4eb9 0000 4986 	jsr 4986 <_bdos>
    4df2:	103c 0038      	moveb #56,%d0
    4df6:	4eb9 0000 10dc 	jsr 10dc <_chbo>
    4dfc:	4878 0012      	pea 12 <bgetseg>
    4e00:	4eb9 0000 490e 	jsr 490e <bios1>
    4e06:	4fef 0020      	lea %sp@(32),%sp
    4e0a:	2040           	moveal %d0,%a0
    4e0c:	2f28 0006      	movel %a0@(6),%sp@-
    4e10:	2f28 0002      	movel %a0@(2),%sp@-
    4e14:	2f00           	movel %d0,%sp@-
    4e16:	4879 0000 746d 	pea 746d <__FUNCTION__.873>
    4e1c:	4879 0000 730d 	pea 730d <__FUNCTION__.1183+0xf>
    4e22:	4eb9 0000 169c 	jsr 169c <printf>
    4e28:	103c 0039      	moveb #57,%d0
    4e2c:	4eb9 0000 10dc 	jsr 10dc <_chbo>
    4e32:	23fc ff00 8000 	movel #-16744448,ff002f58 <tpa_lp>
    4e38:	ff00 2f58 
    4e3c:	23fc ff00 8000 	movel #-16744448,ff002f5c <tpa_lt>
    4e42:	ff00 2f5c 
    4e46:	23fc ff10 8000 	movel #-15695872,ff002f62 <tpa_hp>
    4e4c:	ff00 2f62 
    4e50:	23fc ff10 8000 	movel #-15695872,ff002f66 <tpa_ht>
    4e56:	ff00 2f66 
    4e5a:	4879 ff00 2e88 	pea ff002e88 <gbls+0x24>
    4e60:	4eb9 0000 5f20 	jsr 5f20 <initexc>
    4e66:	4fef 0018      	lea %sp@(24),%sp
    4e6a:	4e5e           	unlk %fp
    4e6c:	4e75           	rts

00004e6e <warmboot>:
    4e6e:	4e56 0000      	linkw %fp,#0
    4e72:	103c 0032      	moveb #50,%d0
    4e76:	4eb9 0000 10dc 	jsr 10dc <_chbo>
    4e7c:	3039 ff00 2f6a 	movew ff002f6a <ro_dsk>,%d0
    4e82:	4640           	notw %d0
    4e84:	c179 ff00 2f60 	andw %d0,ff002f60 <log_dsk>
    4e8a:	4279 ff00 2f6a 	clrw ff002f6a <ro_dsk>
    4e90:	4279 ff00 2f56 	clrw ff002f56 <crit_dsk>
    4e96:	4a6e 000a      	tstw %fp@(10)
    4e9a:	670c           	beqs 4ea8 <warmboot+0x3a>
    4e9c:	4239 ff00 140c 	clrb ff00140c <morecmds>
    4ea2:	4239 ff00 140a 	clrb ff00140a <submit>
    4ea8:	50f9 ff00 2e6e 	st ff002e6e <gbls+0xa>
    4eae:	23f9 ff00 2f58 	movel ff002f58 <tpa_lp>,ff002f5c <tpa_lt>
    4eb4:	ff00 2f5c 
    4eb8:	23f9 ff00 2f62 	movel ff002f62 <tpa_hp>,ff002f66 <tpa_ht>
    4ebe:	ff00 2f66 
    4ec2:	4879 ff00 2e88 	pea ff002e88 <gbls+0x24>
    4ec8:	4eb9 0000 5f20 	jsr 5f20 <initexc>
    4ece:	4878 0001      	pea 1 <_text_start+0x1>
    4ed2:	4eb9 0000 490e 	jsr 490e <bios1>
    4ed8:	508f           	addql #8,%sp
    4eda:	4e5e           	unlk %fp
    4edc:	4e75           	rts

00004ede <prt_err>:
    4ede:	4e56 0000      	linkw %fp,#0
    4ee2:	2f0a           	movel %a2,%sp@-
    4ee4:	2f2e 0008      	movel %fp@(8),%sp@-
    4ee8:	45f9 0000 58c8 	lea 58c8 <prt_line>,%a2
    4eee:	4e92           	jsr %a2@
    4ef0:	4879 0000 7329 	pea 7329 <__FUNCTION__.1183+0x2b>
    4ef6:	4e92           	jsr %a2@
    4ef8:	508f           	addql #8,%sp
    4efa:	1039 ff00 2e6e 	moveb ff002e6e <gbls+0xa>,%d0
    4f00:	49c0           	extbl %d0
    4f02:	7241           	moveq #65,%d1
    4f04:	d280           	addl %d0,%d1
    4f06:	2d41 0008      	movel %d1,%fp@(8)
    4f0a:	246e fffc      	moveal %fp@(-4),%a2
    4f0e:	4e5e           	unlk %fp
    4f10:	60ff 0000 0810 	bral 5722 <conout>

00004f16 <abrt_err>:
    4f16:	4e56 0000      	linkw %fp,#0
    4f1a:	2f2e 0008      	movel %fp@(8),%sp@-
    4f1e:	4eba ffbe      	jsr %pc@(4ede <prt_err>)
    4f22:	588f           	addql #4,%sp
    4f24:	7001           	moveq #1,%d0
    4f26:	2d40 0008      	movel %d0,%fp@(8)
    4f2a:	4e5e           	unlk %fp
    4f2c:	6000 ff40      	braw 4e6e <warmboot>

00004f30 <ext_err>:
    4f30:	4e56 0000      	linkw %fp,#0
    4f34:	48e7 3038      	moveml %d2-%d3/%a2-%a4,%sp@-
    4f38:	142e 000b      	moveb %fp@(11),%d2
    4f3c:	2f2e 000c      	movel %fp@(12),%sp@-
    4f40:	4eba ff9c      	jsr %pc@(4ede <prt_err>)
    4f44:	588f           	addql #4,%sp
    4f46:	45f9 0000 58c8 	lea 58c8 <prt_line>,%a2
    4f4c:	49f9 0000 585c 	lea 585c <conin>,%a4
    4f52:	47fa ff1a      	lea %pc@(4e6e <warmboot>),%a3
    4f56:	4879 0000 733b 	pea 733b <__FUNCTION__.1183+0x3d>
    4f5c:	4e92           	jsr %a2@
    4f5e:	588f           	addql #4,%sp
    4f60:	4a02           	tstb %d2
    4f62:	670a           	beqs 4f6e <ext_err+0x3e>
    4f64:	4879 0000 7365 	pea 7365 <__FUNCTION__.1183+0x67>
    4f6a:	4e92           	jsr %a2@
    4f6c:	588f           	addql #4,%sp
    4f6e:	4879 0000 73ed 	pea 73ed <__FUNCTION__.1183+0xef>
    4f74:	4e92           	jsr %a2@
    4f76:	4e94           	jsr %a4@
    4f78:	1600           	moveb %d0,%d3
    4f7a:	4879 0000 7386 	pea 7386 <__FUNCTION__.1183+0x88>
    4f80:	4e92           	jsr %a2@
    4f82:	508f           	addql #8,%sp
    4f84:	0203 005f      	andib #95,%d3
    4f88:	0c03 0041      	cmpib #65,%d3
    4f8c:	6720           	beqs 4fae <ext_err+0x7e>
    4f8e:	6e08           	bgts 4f98 <ext_err+0x68>
    4f90:	0c03 0003      	cmpib #3,%d3
    4f94:	66c0           	bnes 4f56 <ext_err+0x26>
    4f96:	600e           	bras 4fa6 <ext_err+0x76>
    4f98:	0c03 0043      	cmpib #67,%d3
    4f9c:	6718           	beqs 4fb6 <ext_err+0x86>
    4f9e:	0c03 0052      	cmpib #82,%d3
    4fa2:	66b2           	bnes 4f56 <ext_err+0x26>
    4fa4:	6018           	bras 4fbe <ext_err+0x8e>
    4fa6:	4878 0001      	pea 1 <_text_start+0x1>
    4faa:	4e93           	jsr %a3@
    4fac:	588f           	addql #4,%sp
    4fae:	4878 0001      	pea 1 <_text_start+0x1>
    4fb2:	4e93           	jsr %a3@
    4fb4:	588f           	addql #4,%sp
    4fb6:	4a02           	tstb %d2
    4fb8:	679c           	beqs 4f56 <ext_err+0x26>
    4fba:	7001           	moveq #1,%d0
    4fbc:	6002           	bras 4fc0 <ext_err+0x90>
    4fbe:	4280           	clrl %d0
    4fc0:	4cee 1c0c ffec 	moveml %fp@(-20),%d2-%d3/%a2-%a4
    4fc6:	4e5e           	unlk %fp
    4fc8:	4e75           	rts

00004fca <ro_err>:
    4fca:	4e56 0000      	linkw %fp,#0
    4fce:	48e7 3038      	moveml %d2-%d3/%a2-%a4,%sp@-
    4fd2:	246e 0008      	moveal %fp@(8),%a2
    4fd6:	362e 000e      	movew %fp@(14),%d3
    4fda:	4879 0000 738a 	pea 738a <__FUNCTION__.1183+0x8c>
    4fe0:	4eb9 0000 58c8 	jsr 58c8 <prt_line>
    4fe6:	588f           	addql #4,%sp
    4fe8:	4282           	clrl %d2
    4fea:	49f9 0000 5722 	lea 5722 <conout>,%a4
    4ff0:	1032 2801      	moveb %a2@(0000000000000001,%d2:l),%d0
    4ff4:	49c0           	extbl %d0
    4ff6:	727f           	moveq #127,%d1
    4ff8:	c280           	andl %d0,%d1
    4ffa:	2f01           	movel %d1,%sp@-
    4ffc:	47f9 0000 5722 	lea 5722 <conout>,%a3
    5002:	4e94           	jsr %a4@
    5004:	5282           	addql #1,%d2
    5006:	588f           	addql #4,%sp
    5008:	7008           	moveq #8,%d0
    500a:	b082           	cmpl %d2,%d0
    500c:	66e2           	bnes 4ff0 <ro_err+0x26>
    500e:	4878 002e      	pea 2e <trap3+0xb>
    5012:	4e93           	jsr %a3@
    5014:	588f           	addql #4,%sp
    5016:	4282           	clrl %d2
    5018:	1032 2809      	moveb %a2@(0000000000000009,%d2:l),%d0
    501c:	49c0           	extbl %d0
    501e:	727f           	moveq #127,%d1
    5020:	c280           	andl %d0,%d1
    5022:	2f01           	movel %d1,%sp@-
    5024:	4e93           	jsr %a3@
    5026:	5282           	addql #1,%d2
    5028:	588f           	addql #4,%sp
    502a:	7003           	moveq #3,%d0
    502c:	b082           	cmpl %d2,%d0
    502e:	66e8           	bnes 5018 <ro_err+0x4e>
    5030:	4879 0000 73a2 	pea 73a2 <__FUNCTION__.1183+0xa4>
    5036:	47f9 0000 58c8 	lea 58c8 <prt_line>,%a3
    503c:	4e93           	jsr %a3@
    503e:	588f           	addql #4,%sp
    5040:	49f9 0000 585c 	lea 585c <conin>,%a4
    5046:	4879 0000 73b2 	pea 73b2 <__FUNCTION__.1183+0xb4>
    504c:	4e93           	jsr %a3@
    504e:	4e94           	jsr %a4@
    5050:	1400           	moveb %d0,%d2
    5052:	4879 0000 7386 	pea 7386 <__FUNCTION__.1183+0x88>
    5058:	4e93           	jsr %a3@
    505a:	508f           	addql #8,%sp
    505c:	0202 005f      	andib #95,%d2
    5060:	0c02 0041      	cmpib #65,%d2
    5064:	6716           	beqs 507c <ro_err+0xb2>
    5066:	0c02 0043      	cmpib #67,%d2
    506a:	671a           	beqs 5086 <ro_err+0xbc>
    506c:	0c02 0003      	cmpib #3,%d2
    5070:	66d4           	bnes 5046 <ro_err+0x7c>
    5072:	4878 0001      	pea 1 <_text_start+0x1>
    5076:	4eba fdf6      	jsr %pc@(4e6e <warmboot>)
    507a:	588f           	addql #4,%sp
    507c:	4878 0001      	pea 1 <_text_start+0x1>
    5080:	4eba fdec      	jsr %pc@(4e6e <warmboot>)
    5084:	588f           	addql #4,%sp
    5086:	022a 007f 0009 	andib #127,%a2@(9)
    508c:	4878 0002      	pea 2 <buserr>
    5090:	2f0a           	movel %a2,%sp@-
    5092:	4879 0000 68a0 	pea 68a0 <set_attr>
    5098:	4eb9 0000 5cae 	jsr 5cae <dirscan>
    509e:	e443           	asrw #2,%d3
    50a0:	3043           	moveaw %d3,%a0
    50a2:	2f08           	movel %a0,%sp@-
    50a4:	4eb9 0000 5c1c 	jsr 5c1c <dir_rd>
    50aa:	0280 0000 ffff 	andil #65535,%d0
    50b0:	4cee 1c0c ffec 	moveml %fp@(-20),%d2-%d3/%a2-%a4
    50b6:	4e5e           	unlk %fp
    50b8:	4e75           	rts

000050ba <error>:
    50ba:	4e56 0000      	linkw %fp,#0
    50be:	2f02           	movel %d2,%sp@-
    50c0:	342e 000a      	movew %fp@(10),%d2
    50c4:	4879 0000 73f1 	pea 73f1 <__FUNCTION__.1183+0xf3>
    50ca:	4eb9 0000 58c8 	jsr 58c8 <prt_line>
    50d0:	588f           	addql #4,%sp
    50d2:	0c42 0004      	cmpiw #4,%d2
    50d6:	625a           	bhis 5132 <error+0x78>
    50d8:	0282 0000 ffff 	andil #65535,%d2
    50de:	303b 2a06      	movew %pc@(50e6 <error+0x2c>,%d2:l:2),%d0
    50e2:	4efb 0002      	jmp %pc@(50e6 <error+0x2c>,%d0:w)
    50e6:	000a           	.short 0x000a
    50e8:	0012 001e      	orib #30,%a2@
    50ec:	002a 003a 4879 	orib #58,%a2@(18553)
    50f2:	0000 73ff      	orib #-1,%d0
    50f6:	6006           	bras 50fe <error+0x44>
    50f8:	4879 0000 7405 	pea 7405 <__FUNCTION__.1183+0x107>
    50fe:	4878 0001      	pea 1 <_text_start+0x1>
    5102:	6014           	bras 5118 <error+0x5e>
    5104:	4879 0000 740c 	pea 740c <__FUNCTION__.1183+0x10e>
    510a:	4eba fe0a      	jsr %pc@(4f16 <abrt_err>)
    510e:	588f           	addql #4,%sp
    5110:	4879 0000 740c 	pea 740c <__FUNCTION__.1183+0x10e>
    5116:	42a7           	clrl %sp@-
    5118:	4eba fe16      	jsr %pc@(4f30 <ext_err>)
    511c:	508f           	addql #8,%sp
    511e:	6012           	bras 5132 <error+0x78>
    5120:	2d7c 0000 7414 	movel #29716,%fp@(8)
    5126:	0008 
    5128:	242e fffc      	movel %fp@(-4),%d2
    512c:	4e5e           	unlk %fp
    512e:	6000 fde6      	braw 4f16 <abrt_err>
    5132:	242e fffc      	movel %fp@(-4),%d2
    5136:	4e5e           	unlk %fp
    5138:	4e75           	rts

0000513a <setexc>:
    513a:	4e56 0000      	linkw %fp,#0
    513e:	206e 0008      	moveal %fp@(8),%a0
    5142:	3010           	movew %a0@,%d0
    5144:	3200           	movew %d0,%d1
    5146:	0641 ffde      	addiw #-34,%d1
    514a:	0c41 0001      	cmpiw #1,%d1
    514e:	633c           	blss 518c <setexc+0x52>
    5150:	5441           	addqw #2,%d1
    5152:	0c41 0007      	cmpiw #7,%d1
    5156:	6206           	bhis 515e <setexc+0x24>
    5158:	0640 ffea      	addiw #-22,%d0
    515c:	6010           	bras 516e <setexc+0x34>
    515e:	3200           	movew %d0,%d1
    5160:	5541           	subqw #2,%d1
    5162:	7000           	moveq #0,%d0
    5164:	4600           	notb %d0
    5166:	0c41 0009      	cmpiw #9,%d1
    516a:	6222           	bhis 518e <setexc+0x54>
    516c:	3001           	movew %d1,%d0
    516e:	3240           	moveaw %d0,%a1
    5170:	43e9 0009      	lea %a1@(9),%a1
    5174:	2170 9db0 ff00 	movel @(ffffffffff002e64,%a1:l:4),%a0@(6)
    517a:	2e64 0006 
    517e:	21a8 0002 9db0 	movel %a0@(2),@(ffffffffff002e64,%a1:l:4)
    5184:	ff00 2e64 
    5188:	4280           	clrl %d0
    518a:	6002           	bras 518e <setexc+0x54>
    518c:	70ff           	moveq #-1,%d0
    518e:	4e5e           	unlk %fp
    5190:	4e75           	rts

00005192 <set_tpa>:
    5192:	4e56 0000      	linkw %fp,#0
    5196:	2f02           	movel %d2,%sp@-
    5198:	206e 0008      	moveal %fp@(8),%a0
    519c:	4282           	clrl %d2
    519e:	3410           	movew %a0@,%d2
    51a0:	0802 0000      	btst #0,%d2
    51a4:	6728           	beqs 51ce <set_tpa+0x3c>
    51a6:	2228 0002      	movel %a0@(2),%d1
    51aa:	23c1 ff00 2f5c 	movel %d1,ff002f5c <tpa_lt>
    51b0:	2028 0006      	movel %a0@(6),%d0
    51b4:	23c0 ff00 2f66 	movel %d0,ff002f66 <tpa_ht>
    51ba:	0802 0001      	btst #1,%d2
    51be:	671e           	beqs 51de <set_tpa+0x4c>
    51c0:	23c1 ff00 2f58 	movel %d1,ff002f58 <tpa_lp>
    51c6:	23c0 ff00 2f62 	movel %d0,ff002f62 <tpa_hp>
    51cc:	6010           	bras 51de <set_tpa+0x4c>
    51ce:	2179 ff00 2f5c 	movel ff002f5c <tpa_lt>,%a0@(2)
    51d4:	0002 
    51d6:	2179 ff00 2f66 	movel ff002f66 <tpa_ht>,%a0@(6)
    51dc:	0006 
    51de:	241f           	movel %sp@+,%d2
    51e0:	4e5e           	unlk %fp
    51e2:	4e75           	rts

000051e4 <cpm_swap>:
    51e4:	4e56 0000      	linkw %fp,#0
    51e8:	302e 000a      	movew %fp@(10),%d0
    51ec:	4ab9 ff00 134c 	tstl ff00134c <swaptype.850>
    51f2:	6c14           	bges 5208 <cpm_swap+0x24>
    51f4:	0c39 0001 0000 	cmpib #1,7476 <testpattern.851>
    51fa:	7476 
    51fc:	56c1           	sne %d1
    51fe:	49c1           	extbl %d1
    5200:	5281           	addql #1,%d1
    5202:	23c1 ff00 134c 	movel %d1,ff00134c <swaptype.850>
    5208:	4ab9 ff00 134c 	tstl ff00134c <swaptype.850>
    520e:	6702           	beqs 5212 <cpm_swap+0x2e>
    5210:	e058           	rorw #8,%d0
    5212:	4e5e           	unlk %fp
    5214:	4e75           	rts

00005216 <blkindx>:
    5216:	4e56 0000      	linkw %fp,#0
    521a:	2f02           	movel %d2,%sp@-
    521c:	206e 0008      	moveal %fp@(8),%a0
    5220:	2279 ff00 2e7a 	moveal ff002e7a <gbls+0x16>,%a1
    5226:	1429 0002      	moveb %a1@(2),%d2
    522a:	49c2           	extbl %d2
    522c:	1029 0004      	moveb %a1@(4),%d0
    5230:	c028 000c      	andb %a0@(12),%d0
    5234:	49c0           	extbl %d0
    5236:	7207           	moveq #7,%d1
    5238:	9282           	subl %d2,%d1
    523a:	e3a8           	lsll %d1,%d0
    523c:	4281           	clrl %d1
    523e:	1228 0020      	moveb %a0@(32),%d1
    5242:	e4a1           	asrl %d2,%d1
    5244:	d041           	addw %d1,%d0
    5246:	241f           	movel %sp@+,%d2
    5248:	4e5e           	unlk %fp
    524a:	4e75           	rts

0000524c <blknum>:
    524c:	4e56 0000      	linkw %fp,#0
    5250:	226e 0008      	moveal %fp@(8),%a1
    5254:	306e 000e      	moveaw %fp@(14),%a0
    5258:	4a6e 0012      	tstw %fp@(18)
    525c:	6710           	beqs 526e <blknum+0x22>
    525e:	4280           	clrl %d0
    5260:	3031 8a10      	movew %a1@(0000000000000010,%a0:l:2),%d0
    5264:	2d40 0008      	movel %d0,%fp@(8)
    5268:	4e5e           	unlk %fp
    526a:	6000 ff78      	braw 51e4 <cpm_swap>
    526e:	4240           	clrw %d0
    5270:	1031 8810      	moveb %a1@(0000000000000010,%a0:l),%d0
    5274:	4e5e           	unlk %fp
    5276:	4e75           	rts

00005278 <setblk>:
    5278:	4e56 0000      	linkw %fp,#0
    527c:	2f0a           	movel %a2,%sp@-
    527e:	2f02           	movel %d2,%sp@-
    5280:	246e 0008      	moveal %fp@(8),%a2
    5284:	342e 000e      	movew %fp@(14),%d2
    5288:	302e 0016      	movew %fp@(22),%d0
    528c:	022a 007f 000e 	andib #127,%a2@(14)
    5292:	4a6e 0012      	tstw %fp@(18)
    5296:	6712           	beqs 52aa <setblk+0x32>
    5298:	3f00           	movew %d0,%sp@-
    529a:	4267           	clrw %sp@-
    529c:	4eba ff46      	jsr %pc@(51e4 <cpm_swap>)
    52a0:	3042           	moveaw %d2,%a0
    52a2:	3580 8a10      	movew %d0,%a2@(0000000000000010,%a0:l:2)
    52a6:	588f           	addql #4,%sp
    52a8:	6004           	bras 52ae <setblk+0x36>
    52aa:	1580 2010      	moveb %d0,%a2@(0000000000000010,%d2:w)
    52ae:	242e fff8      	movel %fp@(-8),%d2
    52b2:	246e fffc      	moveal %fp@(-4),%a2
    52b6:	4e5e           	unlk %fp
    52b8:	4e75           	rts

000052ba <do_io>:
    52ba:	4e56 0000      	linkw %fp,#0
    52be:	2f02           	movel %d2,%sp@-
    52c0:	4280           	clrl %d0
    52c2:	302e 000a      	movew %fp@(10),%d0
    52c6:	122e 000f      	moveb %fp@(15),%d1
    52ca:	2079 ff00 2e7a 	moveal ff002e7a <gbls+0x16>,%a0
    52d0:	326e 0012      	moveaw %fp@(18),%a1
    52d4:	2d49 0010      	movel %a1,%fp@(16)
    52d8:	2d79 ff00 2e80 	movel ff002e80 <gbls+0x1c>,%fp@(12)
    52de:	000c 
    52e0:	1428 0002      	moveb %a0@(2),%d2
    52e4:	49c2           	extbl %d2
    52e6:	e5a8           	lsll %d2,%d0
    52e8:	c228 0003      	andb %a0@(3),%d1
    52ec:	49c1           	extbl %d1
    52ee:	d081           	addl %d1,%d0
    52f0:	2d40 0008      	movel %d0,%fp@(8)
    52f4:	241f           	movel %sp@+,%d2
    52f6:	4e5e           	unlk %fp
    52f8:	60ff 0000 0886 	bral 5b80 <rdwrt>

000052fe <new_ext>:
    52fe:	4e56 0000      	linkw %fp,#0
    5302:	48e7 3e30      	moveml %d2-%d6/%a2-%a3,%sp@-
    5306:	246e 0008      	moveal %fp@(8),%a2
    530a:	1c2e 000f      	moveb %fp@(15),%d6
    530e:	4a6e 0012      	tstw %fp@(18)
    5312:	6724           	beqs 5338 <new_ext+0x3a>
    5314:	142a 0022      	moveb %a2@(34),%d2
    5318:	102a 0021      	moveb %a2@(33),%d0
    531c:	49c0           	extbl %d0
    531e:	e988           	lsll #4,%d0
    5320:	1602           	moveb %d2,%d3
    5322:	e803           	asrb #4,%d3
    5324:	8600           	orb %d0,%d3
    5326:	700f           	moveq #15,%d0
    5328:	c480           	andl %d0,%d2
    532a:	e30a           	lslb #1,%d2
    532c:	4a2a 0023      	tstb %a2@(35)
    5330:	6c14           	bges 5346 <new_ext+0x48>
    5332:	0002 0001      	orib #1,%d2
    5336:	600e           	bras 5346 <new_ext+0x48>
    5338:	162a 000e      	moveb %a2@(14),%d3
    533c:	0203 003f      	andib #63,%d3
    5340:	142a 000c      	moveb %a2@(12),%d2
    5344:	5202           	addqb #1,%d2
    5346:	0c02 001f      	cmpib #31,%d2
    534a:	6f04           	bles 5350 <new_ext+0x52>
    534c:	5203           	addqb #1,%d3
    534e:	4202           	clrb %d2
    5350:	0c03 003f      	cmpib #63,%d3
    5354:	6e00 009c      	bgtw 53f2 <new_ext+0xf4>
    5358:	1203           	moveb %d3,%d1
    535a:	49c1           	extbl %d1
    535c:	102a 000e      	moveb %a2@(14),%d0
    5360:	49c0           	extbl %d0
    5362:	783f           	moveq #63,%d4
    5364:	c084           	andl %d4,%d0
    5366:	b081           	cmpl %d1,%d0
    5368:	6622           	bnes 538c <new_ext+0x8e>
    536a:	2079 ff00 2e7a 	moveal ff002e7a <gbls+0x16>,%a0
    5370:	1028 0004      	moveb %a0@(4),%d0
    5374:	49c0           	extbl %d0
    5376:	4680           	notl %d0
    5378:	122a 000c      	moveb %a2@(12),%d1
    537c:	b501           	eorb %d2,%d1
    537e:	c081           	andl %d1,%d0
    5380:	e8c0 06c5      	bftst %d0,27,5
    5384:	6606           	bnes 538c <new_ext+0x8e>
    5386:	1542 000c      	moveb %d2,%a2@(12)
    538a:	606e           	bras 53fa <new_ext+0xfc>
    538c:	2f0a           	movel %a2,%sp@-
    538e:	4eb9 0000 66c4 	jsr 66c4 <close_fi>
    5394:	588f           	addql #4,%sp
    5396:	0c40 00fe      	cmpiw #254,%d0
    539a:	625a           	bhis 53f6 <new_ext+0xf8>
    539c:	1a2a 000e      	moveb %a2@(14),%d5
    53a0:	182a 000c      	moveb %a2@(12),%d4
    53a4:	1543 000e      	moveb %d3,%a2@(14)
    53a8:	1542 000c      	moveb %d2,%a2@(12)
    53ac:	42a7           	clrl %sp@-
    53ae:	2f0a           	movel %a2,%sp@-
    53b0:	4879 0000 6622 	pea 6622 <openfile>
    53b6:	47f9 0000 5cae 	lea 5cae <dirscan>,%a3
    53bc:	4e93           	jsr %a3@
    53be:	4fef 000c      	lea %sp@(12),%sp
    53c2:	0c40 00fe      	cmpiw #254,%d0
    53c6:	6332           	blss 53fa <new_ext+0xfc>
    53c8:	4a06           	tstb %d6
    53ca:	670c           	beqs 53d8 <new_ext+0xda>
    53cc:	1545 000e      	moveb %d5,%a2@(14)
    53d0:	1544 000c      	moveb %d4,%a2@(12)
    53d4:	7004           	moveq #4,%d0
    53d6:	6028           	bras 5400 <new_ext+0x102>
    53d8:	4878 0008      	pea 8 <HiAdr>
    53dc:	2f0a           	movel %a2,%sp@-
    53de:	4879 0000 6786 	pea 6786 <create>
    53e4:	4e93           	jsr %a3@
    53e6:	4fef 000c      	lea %sp@(12),%sp
    53ea:	0c40 00fe      	cmpiw #254,%d0
    53ee:	620e           	bhis 53fe <new_ext+0x100>
    53f0:	6008           	bras 53fa <new_ext+0xfc>
    53f2:	7006           	moveq #6,%d0
    53f4:	600a           	bras 5400 <new_ext+0x102>
    53f6:	7003           	moveq #3,%d0
    53f8:	6006           	bras 5400 <new_ext+0x102>
    53fa:	4240           	clrw %d0
    53fc:	6002           	bras 5400 <new_ext+0x102>
    53fe:	7005           	moveq #5,%d0
    5400:	4cee 0c7c ffe4 	moveml %fp@(-28),%d2-%d6/%a2-%a3
    5406:	4e5e           	unlk %fp
    5408:	4e75           	rts

0000540a <calcext>:
    540a:	4e56 0000      	linkw %fp,#0
    540e:	2f02           	movel %d2,%sp@-
    5410:	226e 0008      	moveal %fp@(8),%a1
    5414:	41e9 0020      	lea %a1@(32),%a0
    5418:	700f           	moveq #15,%d0
    541a:	4a28 ffff      	tstb %a0@(-1)
    541e:	6606           	bnes 5426 <calcext+0x1c>
    5420:	5340           	subqw #1,%d0
    5422:	5388           	subql #1,%a0
    5424:	66f4           	bnes 541a <calcext+0x10>
    5426:	2079 ff00 2e7a 	moveal ff002e7a <gbls+0x16>,%a0
    542c:	0c68 00ff 0006 	cmpiw #255,%a0@(6)
    5432:	6302           	blss 5436 <calcext+0x2c>
    5434:	e248           	lsrw #1,%d0
    5436:	0280 0000 ffff 	andil #65535,%d0
    543c:	1228 0002      	moveb %a0@(2),%d1
    5440:	49c1           	extbl %d1
    5442:	7407           	moveq #7,%d2
    5444:	9481           	subl %d1,%d2
    5446:	e4a0           	asrl %d2,%d0
    5448:	1229 000c      	moveb %a1@(12),%d1
    544c:	4881           	extw %d1
    544e:	0241 001f      	andiw #31,%d1
    5452:	1428 0004      	moveb %a0@(4),%d2
    5456:	4882           	extw %d2
    5458:	4642           	notw %d2
    545a:	c242           	andw %d2,%d1
    545c:	8041           	orw %d1,%d0
    545e:	241f           	movel %sp@+,%d2
    5460:	4e5e           	unlk %fp
    5462:	4e75           	rts

00005464 <get_rc>:
    5464:	4e56 0000      	linkw %fp,#0
    5468:	2f0a           	movel %a2,%sp@-
    546a:	246e 0008      	moveal %fp@(8),%a2
    546e:	2f0a           	movel %a2,%sp@-
    5470:	4eba ff98      	jsr %pc@(540a <calcext>)
    5474:	588f           	addql #4,%sp
    5476:	0280 0000 ffff 	andil #65535,%d0
    547c:	122a 000c      	moveb %a2@(12),%d1
    5480:	49c1           	extbl %d1
    5482:	b280           	cmpl %d0,%d1
    5484:	6608           	bnes 548e <get_rc+0x2a>
    5486:	4240           	clrw %d0
    5488:	102a 000f      	moveb %a2@(15),%d0
    548c:	600c           	bras 549a <get_rc+0x36>
    548e:	b280           	cmpl %d0,%d1
    5490:	6c06           	bges 5498 <get_rc+0x34>
    5492:	303c 0080      	movew #128,%d0
    5496:	6002           	bras 549a <get_rc+0x36>
    5498:	4240           	clrw %d0
    549a:	246e fffc      	moveal %fp@(-4),%a2
    549e:	4e5e           	unlk %fp
    54a0:	4e75           	rts

000054a2 <bdosrw>:
    54a2:	4e56 0000      	linkw %fp,#0
    54a6:	48e7 3f38      	moveml %d2-%d7/%a2-%a4,%sp@-
    54aa:	246e 0008      	moveal %fp@(8),%a2
    54ae:	142e 000f      	moveb %fp@(15),%d2
    54b2:	382e 0012      	movew %fp@(18),%d4
    54b6:	2079 ff00 2e7a 	moveal ff002e7a <gbls+0x16>,%a0
    54bc:	3e28 0006      	movew %a0@(6),%d7
    54c0:	4a02           	tstb %d2
    54c2:	6622           	bnes 54e6 <bdosrw+0x44>
    54c4:	4a2a 0009      	tstb %a2@(9)
    54c8:	6c1c           	bges 54e6 <bdosrw+0x44>
    54ca:	2079 ff00 2e72 	moveal ff002e72 <gbls+0xe>,%a0
    54d0:	2068 000e      	moveal %a0@(14),%a0
    54d4:	4280           	clrl %d0
    54d6:	3028 0008      	movew %a0@(8),%d0
    54da:	2f00           	movel %d0,%sp@-
    54dc:	2f0a           	movel %a2,%sp@-
    54de:	4eb9 0000 4fca 	jsr 4fca <ro_err>
    54e4:	508f           	addql #8,%sp
    54e6:	4a44           	tstw %d4
    54e8:	6728           	beqs 5512 <bdosrw+0x70>
    54ea:	4878 0001      	pea 1 <_text_start+0x1>
    54ee:	1002           	moveb %d2,%d0
    54f0:	49c0           	extbl %d0
    54f2:	2f00           	movel %d0,%sp@-
    54f4:	2f0a           	movel %a2,%sp@-
    54f6:	4eba fe06      	jsr %pc@(52fe <new_ext>)
    54fa:	4fef 000c      	lea %sp@(12),%sp
    54fe:	4a40           	tstw %d0
    5500:	6600 015e      	bnew 5660 <bdosrw+0x1be>
    5504:	102a 0023      	moveb %a2@(35),%d0
    5508:	0200 007f      	andib #127,%d0
    550c:	1540 0020      	moveb %d0,%a2@(32)
    5510:	6024           	bras 5536 <bdosrw+0x94>
    5512:	0c2a ff80 0020 	cmpib #-128,%a2@(32)
    5518:	661c           	bnes 5536 <bdosrw+0x94>
    551a:	42a7           	clrl %sp@-
    551c:	1002           	moveb %d2,%d0
    551e:	49c0           	extbl %d0
    5520:	2f00           	movel %d0,%sp@-
    5522:	2f0a           	movel %a2,%sp@-
    5524:	4eba fdd8      	jsr %pc@(52fe <new_ext>)
    5528:	4fef 000c      	lea %sp@(12),%sp
    552c:	4a40           	tstw %d0
    552e:	6600 012e      	bnew 565e <bdosrw+0x1bc>
    5532:	422a 0020      	clrb %a2@(32)
    5536:	1a2a 000f      	moveb %a2@(15),%d5
    553a:	162a 0020      	moveb %a2@(32),%d3
    553e:	2f0a           	movel %a2,%sp@-
    5540:	4eba ff22      	jsr %pc@(5464 <get_rc>)
    5544:	588f           	addql #4,%sp
    5546:	4281           	clrl %d1
    5548:	1203           	moveb %d3,%d1
    554a:	0280 0000 ffff 	andil #65535,%d0
    5550:	b081           	cmpl %d1,%d0
    5552:	6e10           	bgts 5564 <bdosrw+0xc2>
    5554:	4a02           	tstb %d2
    5556:	6600 0106      	bnew 565e <bdosrw+0x1bc>
    555a:	022a 007f 000e 	andib #127,%a2@(14)
    5560:	1a03           	moveb %d3,%d5
    5562:	5205           	addqb #1,%d5
    5564:	2f0a           	movel %a2,%sp@-
    5566:	4eba fcae      	jsr %pc@(5216 <blkindx>)
    556a:	3c00           	movew %d0,%d6
    556c:	0247 ff00      	andiw #-256,%d7
    5570:	3847           	moveaw %d7,%a4
    5572:	3640           	moveaw %d0,%a3
    5574:	2e8c           	movel %a4,%sp@
    5576:	2f0b           	movel %a3,%sp@-
    5578:	2f0a           	movel %a2,%sp@-
    557a:	4eba fcd0      	jsr %pc@(524c <blknum>)
    557e:	3600           	movew %d0,%d3
    5580:	4fef 000c      	lea %sp@(12),%sp
    5584:	670c           	beqs 5592 <bdosrw+0xf0>
    5586:	4a02           	tstb %d2
    5588:	57c0           	seq %d0
    558a:	4880           	extw %d0
    558c:	4440           	negw %d0
    558e:	6000 00a4      	braw 5634 <bdosrw+0x192>
    5592:	4a02           	tstb %d2
    5594:	6600 00c8      	bnew 565e <bdosrw+0x1bc>
    5598:	4a46           	tstw %d6
    559a:	6706           	beqs 55a2 <bdosrw+0x100>
    559c:	41eb ffff      	lea %a3@(-1),%a0
    55a0:	6002           	bras 55a4 <bdosrw+0x102>
    55a2:	91c8           	subal %a0,%a0
    55a4:	2f0c           	movel %a4,%sp@-
    55a6:	2f08           	movel %a0,%sp@-
    55a8:	2f0a           	movel %a2,%sp@-
    55aa:	4eba fca0      	jsr %pc@(524c <blknum>)
    55ae:	3f00           	movew %d0,%sp@-
    55b0:	4267           	clrw %sp@-
    55b2:	4eb9 0000 5ebe 	jsr 5ebe <getaloc>
    55b8:	3600           	movew %d0,%d3
    55ba:	4286           	clrl %d6
    55bc:	3c00           	movew %d0,%d6
    55be:	2f06           	movel %d6,%sp@-
    55c0:	2f0c           	movel %a4,%sp@-
    55c2:	2f0b           	movel %a3,%sp@-
    55c4:	2f0a           	movel %a2,%sp@-
    55c6:	4eba fcb0      	jsr %pc@(5278 <setblk>)
    55ca:	4fef 0020      	lea %sp@(32),%sp
    55ce:	0c44 0002      	cmpiw #2,%d4
    55d2:	665e           	bnes 5632 <bdosrw+0x190>
    55d4:	2679 ff00 2e80 	moveal ff002e80 <gbls+0x1c>,%a3
    55da:	23f9 ff00 2e76 	movel ff002e76 <gbls+0x12>,ff002e80 <gbls+0x1c>
    55e0:	ff00 2e80 
    55e4:	707f           	moveq #127,%d0
    55e6:	2079 ff00 2e80 	moveal ff002e80 <gbls+0x1c>,%a0
    55ec:	4230 0800      	clrb %a0@(0000000000000000,%d0:l)
    55f0:	51c8 fff4      	dbf %d0,55e6 <bdosrw+0x144>
    55f4:	4240           	clrw %d0
    55f6:	5380           	subql #1,%d0
    55f8:	64ec           	bccs 55e6 <bdosrw+0x144>
    55fa:	7003           	moveq #3,%d0
    55fc:	4242           	clrw %d2
    55fe:	49fa fcba      	lea %pc@(52ba <do_io>),%a4
    5602:	6016           	bras 561a <bdosrw+0x178>
    5604:	3040           	moveaw %d0,%a0
    5606:	2f08           	movel %a0,%sp@-
    5608:	1002           	moveb %d2,%d0
    560a:	49c0           	extbl %d0
    560c:	2f00           	movel %d0,%sp@-
    560e:	2f06           	movel %d6,%sp@-
    5610:	4e94           	jsr %a4@
    5612:	5242           	addqw #1,%d2
    5614:	7001           	moveq #1,%d0
    5616:	4fef 000c      	lea %sp@(12),%sp
    561a:	2079 ff00 2e7a 	moveal ff002e7a <gbls+0x16>,%a0
    5620:	1228 0003      	moveb %a0@(3),%d1
    5624:	4881           	extw %d1
    5626:	b242           	cmpw %d2,%d1
    5628:	6cda           	bges 5604 <bdosrw+0x162>
    562a:	23cb ff00 2e80 	movel %a3,ff002e80 <gbls+0x1c>
    5630:	6002           	bras 5634 <bdosrw+0x192>
    5632:	7003           	moveq #3,%d0
    5634:	3040           	moveaw %d0,%a0
    5636:	2f08           	movel %a0,%sp@-
    5638:	102a 0020      	moveb %a2@(32),%d0
    563c:	49c0           	extbl %d0
    563e:	2f00           	movel %d0,%sp@-
    5640:	3f03           	movew %d3,%sp@-
    5642:	4267           	clrw %sp@-
    5644:	4eba fc74      	jsr %pc@(52ba <do_io>)
    5648:	4fef 000c      	lea %sp@(12),%sp
    564c:	4a40           	tstw %d0
    564e:	6610           	bnes 5660 <bdosrw+0x1be>
    5650:	1545 000f      	moveb %d5,%a2@(15)
